LX51 LINKER/LOCATER V4.66.97.0                                                          02/04/2022  22:44:32  PAGE 1


LX51 LINKER/LOCATER V4.66.97.0, INVOKED BY:
C:\KEIL_V5\C51\BIN\LX51.EXE .\Objects\STARTUP.obj, .\Objects\main.obj TO .\Objects\timer_bomb PRINT (.\Listings\timer_bo
>> mb.map)


CPU MODE:     8051 MODE
MEMORY MODEL: SMALL


INPUT MODULES INCLUDED:
  .\Objects\STARTUP.obj (?C_STARTUP)
         COMMENT TYPE 1: A51 / ASM51 Assembler
  .\Objects\main.obj (MAIN)
         COMMENT TYPE 0: C51 V9.60.0.0
  C:\KEIL_V5\C51\LIB\C51S.LIB (?C_INIT)
         COMMENT TYPE 1: A51 / ASM51 Assembler
  C:\KEIL_V5\C51\LIB\C51S.LIB (?C?LMUL)
         COMMENT TYPE 1: A51 / ASM51 Assembler
  C:\KEIL_V5\C51\LIB\C51S.LIB (?C?ULDIV)
         COMMENT TYPE 1: A51 / ASM51 Assembler
  C:\KEIL_V5\C51\LIB\C51S.LIB (?C?SLDIV)
         COMMENT TYPE 1: A51 / ASM51 Assembler
  C:\KEIL_V5\C51\LIB\C51S.LIB (?C?ULSHR)
         COMMENT TYPE 1: A51 / ASM51 Assembler


ACTIVE MEMORY CLASSES OF MODULE:  .\Objects\timer_bomb (?C_STARTUP)

BASE        START       END         USED      MEMORY CLASS
==========================================================
C:000000H   C:000000H   C:00FFFFH   000444H   CODE
I:000000H   I:000000H   I:0000FFH   000001H   IDATA
I:000000H   I:000000H   I:00007FH   00001AH   DATA
I:000020H.0 I:000020H.0 I:00002FH.7 000000H.2 BIT
C:000000H   C:000000H   C:00FFFFH   00000DH   CONST


MEMORY MAP OF MODULE:  .\Objects\timer_bomb (?C_STARTUP)


START     STOP      LENGTH    ALIGN  RELOC    MEMORY CLASS   SEGMENT NAME
=========================================================================

* * * * * * * * * * *   D A T A   M E M O R Y   * * * * * * * * * * * * *
000000H   000007H   000008H   ---    AT..     DATA           "REG BANK 0"
000008H   000015H   00000EH   BYTE   UNIT     DATA           ?DT?MAIN
000016H   000019H   000004H   BYTE   UNIT     DATA           _DATA_GROUP_
00001AH.0 00001FH.7 000006H.0 ---    ---      **GAP**
000020H.0 000020H.1 000000H.2 BIT    UNIT     BIT            ?BI?MAIN
000020H.2 000020H   000000H.6 ---    ---      **GAP**
000021H   000021H   000001H   BYTE   UNIT     IDATA          ?STACK

* * * * * * * * * * *   C O D E   M E M O R Y   * * * * * * * * * * * * *
000000H   000002H   000003H   ---    OFFS..   CODE           ?CO??C_STARTUP?0
000003H   00000AH   000008H   ---    ---      **GAP**
00000BH   00000DH   000003H   BYTE   OFFS..   CODE           ?MAIN?0000B
00000EH   00001AH   00000DH   BYTE   UNIT     CONST          ?CO?MAIN
00001BH   00001DH   000003H   BYTE   OFFS..   CODE           ?MAIN?0001B
00001EH   00014DH   000130H   BYTE   UNIT     CODE           ?C?LIB_CODE
00014EH   0001D9H   00008CH   BYTE   UNIT     CODE           ?C_C51STARTUP
0001DAH   000254H   00007BH   BYTE   UNIT     CODE           ?PR?INTERRUPTTIMER1?MAIN
000255H   0002C5H   000071H   BYTE   UNIT     CODE           ?PR?_CONFIGPWM?MAIN
0002C6H   000329H   000064H   BYTE   UNIT     CODE           ?PR?_CONFIGTIMER1?MAIN
00032AH   00036DH   000044H   BYTE   UNIT     CODE           ?C?LDIV
00036EH   0003AAH   00003DH   BYTE   UNIT     CODE           ?PR?_ADJUSTDUTYCYCLE?MAIN
0003ABH   0003E1H   000037H   BYTE   UNIT     CODE           ?PR?INTERRUPTTIMER0?MAIN
LX51 LINKER/LOCATER V4.66.97.0                                                        02/04/2022  22:44:32  PAGE 2


0003E2H   000413H   000032H   BYTE   UNIT     CODE           ?PR?TRAFFICLIGHT?MAIN
000414H   00043CH   000029H   BYTE   UNIT     CODE           ?C_INITSEG
00043DH   000458H   00001CH   BYTE   UNIT     CODE           ?PR?MAIN?MAIN



OVERLAY MAP OF MODULE:   .\Objects\timer_bomb (?C_STARTUP)


FUNCTION/MODULE              BIT_GROUP   DATA_GROUP 
--> CALLED FUNCTION/MODULE  START  STOP  START  STOP
====================================================
?C_C51STARTUP               ----- -----  ----- -----
  +--> MAIN/MAIN
  +--> ?C_INITSEG

MAIN/MAIN                   ----- -----  ----- -----
  +--> _CONFIGPWM/MAIN
  +--> _CONFIGTIMER1/MAIN
  +--> TRAFFICLIGHT/MAIN

_CONFIGPWM/MAIN             ----- -----  0016H 0016H

_CONFIGTIMER1/MAIN          ----- -----  0016H 0019H

TRAFFICLIGHT/MAIN           ----- -----  ----- -----

?C_INITSEG                  ----- -----  ----- -----

*** NEW ROOT **************

INTERRUPTTIMER0/MAIN        ----- -----  ----- -----

*** NEW ROOT **************

INTERRUPTTIMER1/MAIN        ----- -----  ----- -----
  +--> _ADJUSTDUTYCYCLE/MAIN

_ADJUSTDUTYCYCLE/MAIN       ----- -----  ----- -----



PUBLIC SYMBOLS OF MODULE:  .\Objects\timer_bomb (?C_STARTUP)


      VALUE       CLASS    TYPE      PUBLIC SYMBOL NAME
      =================================================
      00000000H   NUMBER   ---       ?C?CODESEG
      0100001EH   CODE     ---       ?C?LMUL
      0100032AH   CODE     ---       ?C?SLDIV
      010000A9H   CODE     ---       ?C?ULDIV
      0100013BH   CODE     ---       ?C?ULSHR
      00000000H   NUMBER   ---       ?C?XDATASEG
      01000195H   CODE     ---       ?C_START
      01000000H   CODE     ---       ?C_STARTUP
      0100036EH   CODE     ---       _AdjustDutyCycle
      01000255H   CODE     ---       _ConfigPWM
      010002C6H   CODE     ---       _ConfigTimer1
*SFR* 000000D0H.6 DATA     BIT       AC
*SFR* 000000E0H   DATA     BYTE      ACC
*SFR* 0000008EH   DATA     BYTE      AUXR
*SFR* 000000A2H   DATA     BYTE      AUXR1
*SFR* 000000F0H   DATA     BYTE      B
*SFR* 000000C8H.1 DATA     BIT       C_T2
      00000011H   DATA     BYTE      color
LX51 LINKER/LOCATER V4.66.97.0                                                        02/04/2022  22:44:32  PAGE 3


*SFR* 000000C8H.0 DATA     BIT       CP_RL2
*SFR* 000000D0H.7 DATA     BIT       CY
*SFR* 00000083H   DATA     BYTE      DPH
*SFR* 00000082H   DATA     BYTE      DPL
*SFR* 000000A8H.7 DATA     BIT       EA
*SFR* 000000A8H.6 DATA     BIT       EC
*SFR* 000000A8H.4 DATA     BIT       ES
*SFR* 000000A8H.1 DATA     BIT       ET0
*SFR* 000000A8H.3 DATA     BIT       ET1
*SFR* 000000A8H.5 DATA     BIT       ET2
*SFR* 000000A8H.0 DATA     BIT       EX0
*SFR* 000000A8H.2 DATA     BIT       EX1
*SFR* 000000C8H.3 DATA     BIT       EXEN2
*SFR* 000000C8H.6 DATA     BIT       EXF2
*SFR* 000000D0H.5 DATA     BIT       F0
*SFR* 00000098H.7 DATA     BIT       FE
      00000020H.1 BIT      BIT       flag_1s
      0000000EH   DATA     BYTE      HighRH
      00000010H   DATA     BYTE      HighRL
*SFR* 000000A8H   DATA     BYTE      IE
*SFR* 00000088H.1 DATA     BIT       IE0
*SFR* 00000088H.3 DATA     BIT       IE1
*SFR* 000000B0H.2 DATA     BIT       INT0
*SFR* 000000B0H.3 DATA     BIT       INT1
      010003ABH   CODE     ---       InterruptTimer0
      010001DAH   CODE     ---       InterruptTimer1
*SFR* 000000B8H   DATA     BYTE      IP
*SFR* 000000B7H   DATA     BYTE      IPH
*SFR* 000000E3H   DATA     BYTE      ISP_ADDRH
*SFR* 000000E4H   DATA     BYTE      ISP_ADDRL
*SFR* 000000E5H   DATA     BYTE      ISP_CMD
*SFR* 000000E7H   DATA     BYTE      ISP_CONTR
*SFR* 000000E2H   DATA     BYTE      ISP_DATA
*SFR* 000000E6H   DATA     BYTE      ISP_TRIG
*SFR* 00000088H.0 DATA     BIT       IT0
*SFR* 00000088H.2 DATA     BIT       IT1
      00000014H   DATA     BYTE      LowRH
      00000015H   DATA     BYTE      LowRL
      0100043DH   CODE     ---       main
*SFR* 000000D0H.2 DATA     BIT       OV
*SFR* 000000D0H.0 DATA     BIT       P
*SFR* 00000080H   DATA     BYTE      P0
*SFR* 00000080H.0 DATA     BIT       P00
*SFR* 00000080H.1 DATA     BIT       P01
*SFR* 00000080H.2 DATA     BIT       P02
*SFR* 00000080H.3 DATA     BIT       P03
*SFR* 00000080H.4 DATA     BIT       P04
*SFR* 00000080H.5 DATA     BIT       P05
*SFR* 00000080H.6 DATA     BIT       P06
*SFR* 00000080H.7 DATA     BIT       P07
*SFR* 00000090H   DATA     BYTE      P1
*SFR* 00000090H.0 DATA     BIT       P10
*SFR* 00000090H.1 DATA     BIT       P11
*SFR* 00000090H.2 DATA     BIT       P12
*SFR* 00000090H.3 DATA     BIT       P13
*SFR* 00000090H.4 DATA     BIT       P14
*SFR* 00000090H.5 DATA     BIT       P15
*SFR* 00000090H.6 DATA     BIT       P16
*SFR* 00000090H.7 DATA     BIT       P17
*SFR* 000000A0H   DATA     BYTE      P2
*SFR* 000000A0H.0 DATA     BIT       P20
*SFR* 000000A0H.1 DATA     BIT       P21
*SFR* 000000A0H.2 DATA     BIT       P22
*SFR* 000000A0H.3 DATA     BIT       P23
*SFR* 000000A0H.4 DATA     BIT       P24
LX51 LINKER/LOCATER V4.66.97.0                                                        02/04/2022  22:44:32  PAGE 4


*SFR* 000000A0H.5 DATA     BIT       P25
*SFR* 000000A0H.6 DATA     BIT       P26
*SFR* 000000A0H.7 DATA     BIT       P27
*SFR* 000000B0H   DATA     BYTE      P3
*SFR* 000000B0H.0 DATA     BIT       P30
*SFR* 000000B0H.1 DATA     BIT       P31
*SFR* 000000B0H.2 DATA     BIT       P32
*SFR* 000000B0H.3 DATA     BIT       P33
*SFR* 000000B0H.4 DATA     BIT       P34
*SFR* 000000B0H.5 DATA     BIT       P35
*SFR* 000000B0H.6 DATA     BIT       P36
*SFR* 000000B0H.7 DATA     BIT       P37
*SFR* 000000E8H   DATA     BYTE      P4
*SFR* 000000E8H.0 DATA     BIT       P40
*SFR* 000000E8H.1 DATA     BIT       P41
*SFR* 000000E8H.2 DATA     BIT       P42
*SFR* 000000E8H.3 DATA     BIT       P43
*SFR* 000000E8H.4 DATA     BIT       P44
*SFR* 000000E8H.5 DATA     BIT       P45
*SFR* 000000E8H.6 DATA     BIT       P46
*SFR* 00000087H   DATA     BYTE      PCON
      0000000AH   DATA     DWORD     PeriodCnt
*SFR* 000000B8H.4 DATA     BIT       PS
*SFR* 000000D0H   DATA     BYTE      PSW
*SFR* 000000B8H.1 DATA     BIT       PT0
*SFR* 000000B8H.3 DATA     BIT       PT1
*SFR* 000000B8H.5 DATA     BIT       PT2
*SFR* 000000B8H.0 DATA     BIT       PX0
*SFR* 000000B8H.2 DATA     BIT       PX1
*SFR* 00000098H.2 DATA     BIT       RB8
*SFR* 000000CBH   DATA     BYTE      RCAP2H
*SFR* 000000CAH   DATA     BYTE      RCAP2L
*SFR* 000000C8H.5 DATA     BIT       RCLK
*SFR* 000000B0H.7 DATA     BIT       RD
*SFR* 00000098H.4 DATA     BIT       REN
*SFR* 00000098H.0 DATA     BIT       RI
*SFR* 000000D0H.3 DATA     BIT       RS0
*SFR* 000000D0H.4 DATA     BIT       RS1
*SFR* 000000B0H.0 DATA     BIT       RXD
*SFR* 000000A9H   DATA     BYTE      SADDR
*SFR* 000000B9H   DATA     BYTE      SADEN
*SFR* 00000099H   DATA     BYTE      SBUF
*SFR* 00000098H   DATA     BYTE      SCON
*SFR* 00000098H.7 DATA     BIT       SM0
*SFR* 00000098H.6 DATA     BIT       SM1
*SFR* 00000098H.5 DATA     BIT       SM2
*SFR* 00000081H   DATA     BYTE      SP
*SFR* 000000B0H.4 DATA     BIT       T0
*SFR* 000000B0H.5 DATA     BIT       T1
      0000000FH   DATA     BYTE      T1RH
      00000013H   DATA     BYTE      T1RL
*SFR* 00000090H.0 DATA     BIT       T2
*SFR* 000000C8H   DATA     BYTE      T2CON
*SFR* 00000090H.1 DATA     BIT       T2EX
*SFR* 000000C9H   DATA     BYTE      T2MOD
*SFR* 00000098H.3 DATA     BIT       TB8
*SFR* 000000C8H.4 DATA     BIT       TCLK
*SFR* 00000088H   DATA     BYTE      TCON
*SFR* 00000088H.5 DATA     BIT       TF0
*SFR* 00000088H.7 DATA     BIT       TF1
*SFR* 000000C8H.7 DATA     BIT       TF2
*SFR* 0000008CH   DATA     BYTE      TH0
*SFR* 0000008DH   DATA     BYTE      TH1
*SFR* 000000CDH   DATA     BYTE      TH2
*SFR* 00000098H.1 DATA     BIT       TI
LX51 LINKER/LOCATER V4.66.97.0                                                        02/04/2022  22:44:32  PAGE 5


      00000012H   DATA     BYTE      timer
*SFR* 0000008AH   DATA     BYTE      TL0
*SFR* 0000008BH   DATA     BYTE      TL1
*SFR* 000000CCH   DATA     BYTE      TL2
*SFR* 00000089H   DATA     BYTE      TMOD
*SFR* 00000088H.4 DATA     BIT       TR0
*SFR* 00000088H.6 DATA     BIT       TR1
*SFR* 000000C8H.2 DATA     BIT       TR2
      010003E2H   CODE     ---       TrafficLight
      0100000EH   CONST    ---       TrafficLightColor
*SFR* 000000B0H.1 DATA     BIT       TXD
*SFR* 000000E1H   DATA     BYTE      WDT_CONTR
*SFR* 000000B0H.6 DATA     BIT       WR
*SFR* 000000C0H   DATA     BYTE      XICON



SYMBOL TABLE OF MODULE:  .\Objects\timer_bomb (?C_STARTUP)

      VALUE       REP       CLASS    TYPE      SYMBOL NAME
      ====================================================
      ---         MODULE    ---      ---       ?C_STARTUP
      01000000H   PUBLIC    CODE     ---       ?C_STARTUP
      000000E0H   SYMBOL    DATA     ---       ACC
      000000F0H   SYMBOL    DATA     ---       B
      00000083H   SYMBOL    DATA     ---       DPH
      00000082H   SYMBOL    DATA     ---       DPL
      00000000H   SYMBOL    NUMBER   ---       IBPSTACK
      00000100H   SYMBOL    NUMBER   ---       IBPSTACKTOP
      00000080H   SYMBOL    NUMBER   ---       IDATALEN
      01000151H   SYMBOL    CODE     ---       IDATALOOP
      00000000H   SYMBOL    NUMBER   ---       PBPSTACK
      00000100H   SYMBOL    NUMBER   ---       PBPSTACKTOP
      00000000H   SYMBOL    NUMBER   ---       PDATALEN
      00000000H   SYMBOL    NUMBER   ---       PDATASTART
      00000000H   SYMBOL    NUMBER   ---       PPAGE
      00000000H   SYMBOL    NUMBER   ---       PPAGEENABLE
      000000A0H   SYMBOL    DATA     ---       PPAGE_SFR
      00000081H   SYMBOL    DATA     ---       SP
      0100014EH   SYMBOL    CODE     ---       STARTUP1
      00000000H   SYMBOL    NUMBER   ---       XBPSTACK
      00000000H   SYMBOL    NUMBER   ---       XBPSTACKTOP
      00000000H   SYMBOL    NUMBER   ---       XDATALEN
      00000000H   SYMBOL    NUMBER   ---       XDATASTART
      01000000H   LINE      CODE     ---       #126
      0100014EH   LINE      CODE     ---       #133
      01000150H   LINE      CODE     ---       #134
      01000151H   LINE      CODE     ---       #135
      01000152H   LINE      CODE     ---       #136
      01000154H   LINE      CODE     ---       #185
      01000157H   LINE      CODE     ---       #196

      ---         MODULE    ---      ---       MAIN
      00000015H   PUBLIC    DATA     BYTE      LowRL
      00000014H   PUBLIC    DATA     BYTE      LowRH
      00000013H   PUBLIC    DATA     BYTE      T1RL
      00000012H   PUBLIC    DATA     BYTE      timer
      00000011H   PUBLIC    DATA     BYTE      color
      00000010H   PUBLIC    DATA     BYTE      HighRL
      00000020H.1 PUBLIC    BIT      BIT       flag_1s
      0000000FH   PUBLIC    DATA     BYTE      T1RH
      0000000EH   PUBLIC    DATA     BYTE      HighRH
      0000000AH   PUBLIC    DATA     DWORD     PeriodCnt
      0100000EH   PUBLIC    CONST    ---       TrafficLightColor
      010001DAH   PUBLIC    CODE     ---       InterruptTimer1
LX51 LINKER/LOCATER V4.66.97.0                                                        02/04/2022  22:44:32  PAGE 6


      010003ABH   PUBLIC    CODE     ---       InterruptTimer0
      010003E2H   PUBLIC    CODE     ---       TrafficLight
      0100036EH   PUBLIC    CODE     ---       _AdjustDutyCycle
      01000255H   PUBLIC    CODE     ---       _ConfigPWM
      010002C6H   PUBLIC    CODE     ---       _ConfigTimer1
      0100043DH   PUBLIC    CODE     ---       main
      00000080H   SFRSYM    DATA     BYTE      P0
      00000090H   SFRSYM    DATA     BYTE      P1
      000000A0H   SFRSYM    DATA     BYTE      P2
      000000B0H   SFRSYM    DATA     BYTE      P3
      000000C0H   SFRSYM    DATA     BYTE      XICON
      000000B0H.4 SFRSYM    DATA     BIT       T0
      000000D0H.6 SFRSYM    DATA     BIT       AC
      000000E8H   SFRSYM    DATA     BYTE      P4
      000000B0H.5 SFRSYM    DATA     BIT       T1
      000000E6H   SFRSYM    DATA     BYTE      ISP_TRIG
      00000090H.0 SFRSYM    DATA     BIT       T2
      000000A8H.7 SFRSYM    DATA     BIT       EA
      000000A8H.6 SFRSYM    DATA     BIT       EC
      00000098H.7 SFRSYM    DATA     BIT       FE
      000000A8H   SFRSYM    DATA     BYTE      IE
      000000C8H.6 SFRSYM    DATA     BIT       EXF2
      000000B0H.7 SFRSYM    DATA     BIT       RD
      000000A8H.4 SFRSYM    DATA     BIT       ES
      000000B8H   SFRSYM    DATA     BYTE      IP
      00000098H.0 SFRSYM    DATA     BIT       RI
      000000B0H.2 SFRSYM    DATA     BIT       INT0
      000000D0H.7 SFRSYM    DATA     BIT       CY
      00000098H.1 SFRSYM    DATA     BIT       TI
      000000B0H.3 SFRSYM    DATA     BIT       INT1
      000000CBH   SFRSYM    DATA     BYTE      RCAP2H
      000000E5H   SFRSYM    DATA     BYTE      ISP_CMD
      000000B8H.4 SFRSYM    DATA     BIT       PS
      00000081H   SFRSYM    DATA     BYTE      SP
      00000090H.1 SFRSYM    DATA     BIT       T2EX
      000000D0H.2 SFRSYM    DATA     BIT       OV
      000000CAH   SFRSYM    DATA     BYTE      RCAP2L
      000000C8H.1 SFRSYM    DATA     BIT       C_T2
      000000B0H.6 SFRSYM    DATA     BIT       WR
      000000C8H.5 SFRSYM    DATA     BIT       RCLK
      000000C8H.4 SFRSYM    DATA     BIT       TCLK
      00000080H.0 SFRSYM    DATA     BIT       P00
      00000099H   SFRSYM    DATA     BYTE      SBUF
      00000087H   SFRSYM    DATA     BYTE      PCON
      00000090H.0 SFRSYM    DATA     BIT       P10
      00000080H.1 SFRSYM    DATA     BIT       P01
      000000A0H.0 SFRSYM    DATA     BIT       P20
      00000090H.1 SFRSYM    DATA     BIT       P11
      00000080H.2 SFRSYM    DATA     BIT       P02
      000000E3H   SFRSYM    DATA     BYTE      ISP_ADDRH
      000000B0H.0 SFRSYM    DATA     BIT       P30
      000000A0H.1 SFRSYM    DATA     BIT       P21
      00000090H.2 SFRSYM    DATA     BIT       P12
      00000080H.3 SFRSYM    DATA     BIT       P03
      00000098H   SFRSYM    DATA     BYTE      SCON
      000000B0H.1 SFRSYM    DATA     BIT       P31
      000000A0H.2 SFRSYM    DATA     BIT       P22
      00000090H.3 SFRSYM    DATA     BIT       P13
      00000080H.4 SFRSYM    DATA     BIT       P04
      000000E8H.0 SFRSYM    DATA     BIT       P40
      00000089H   SFRSYM    DATA     BYTE      TMOD
      00000088H   SFRSYM    DATA     BYTE      TCON
      000000B0H.2 SFRSYM    DATA     BIT       P32
      000000A0H.3 SFRSYM    DATA     BIT       P23
      00000090H.4 SFRSYM    DATA     BIT       P14
LX51 LINKER/LOCATER V4.66.97.0                                                        02/04/2022  22:44:32  PAGE 7


      00000080H.5 SFRSYM    DATA     BIT       P05
      000000E8H.1 SFRSYM    DATA     BIT       P41
      000000B0H.3 SFRSYM    DATA     BIT       P33
      000000A0H.4 SFRSYM    DATA     BIT       P24
      00000090H.5 SFRSYM    DATA     BIT       P15
      00000080H.6 SFRSYM    DATA     BIT       P06
      000000E4H   SFRSYM    DATA     BYTE      ISP_ADDRL
      000000E8H.2 SFRSYM    DATA     BIT       P42
      000000B0H.4 SFRSYM    DATA     BIT       P34
      000000A0H.5 SFRSYM    DATA     BIT       P25
      00000090H.6 SFRSYM    DATA     BIT       P16
      00000080H.7 SFRSYM    DATA     BIT       P07
      000000E8H.3 SFRSYM    DATA     BIT       P43
      000000B0H.5 SFRSYM    DATA     BIT       P35
      000000A0H.6 SFRSYM    DATA     BIT       P26
      00000090H.7 SFRSYM    DATA     BIT       P17
      000000E8H.4 SFRSYM    DATA     BIT       P44
      000000B0H.6 SFRSYM    DATA     BIT       P36
      000000A0H.7 SFRSYM    DATA     BIT       P27
      000000E8H.5 SFRSYM    DATA     BIT       P45
      000000B0H.7 SFRSYM    DATA     BIT       P37
      000000E8H.6 SFRSYM    DATA     BIT       P46
      00000088H.1 SFRSYM    DATA     BIT       IE0
      00000088H.3 SFRSYM    DATA     BIT       IE1
      0000008EH   SFRSYM    DATA     BYTE      AUXR
      000000F0H   SFRSYM    DATA     BYTE      B
      000000C8H.0 SFRSYM    DATA     BIT       CP_RL2
      000000E0H   SFRSYM    DATA     BYTE      ACC
      000000A8H.1 SFRSYM    DATA     BIT       ET0
      000000A8H.3 SFRSYM    DATA     BIT       ET1
      00000088H.5 SFRSYM    DATA     BIT       TF0
      000000A8H.5 SFRSYM    DATA     BIT       ET2
      00000088H.7 SFRSYM    DATA     BIT       TF1
      000000C8H.7 SFRSYM    DATA     BIT       TF2
      00000098H.2 SFRSYM    DATA     BIT       RB8
      0000008CH   SFRSYM    DATA     BYTE      TH0
      000000A8H.0 SFRSYM    DATA     BIT       EX0
      00000088H.0 SFRSYM    DATA     BIT       IT0
      0000008DH   SFRSYM    DATA     BYTE      TH1
      00000098H.3 SFRSYM    DATA     BIT       TB8
      000000A8H.2 SFRSYM    DATA     BIT       EX1
      00000088H.2 SFRSYM    DATA     BIT       IT1
      000000CDH   SFRSYM    DATA     BYTE      TH2
      000000D0H.0 SFRSYM    DATA     BIT       P
      00000098H.7 SFRSYM    DATA     BIT       SM0
      0000008AH   SFRSYM    DATA     BYTE      TL0
      00000098H.6 SFRSYM    DATA     BIT       SM1
      0000008BH   SFRSYM    DATA     BYTE      TL1
      00000098H.5 SFRSYM    DATA     BIT       SM2
      000000CCH   SFRSYM    DATA     BYTE      TL2
      000000B8H.1 SFRSYM    DATA     BIT       PT0
      000000B8H.3 SFRSYM    DATA     BIT       PT1
      000000D0H.3 SFRSYM    DATA     BIT       RS0
      000000E7H   SFRSYM    DATA     BYTE      ISP_CONTR
      000000B8H.5 SFRSYM    DATA     BIT       PT2
      00000088H.4 SFRSYM    DATA     BIT       TR0
      000000D0H.4 SFRSYM    DATA     BIT       RS1
      00000088H.6 SFRSYM    DATA     BIT       TR1
      000000C8H.2 SFRSYM    DATA     BIT       TR2
      000000B8H.0 SFRSYM    DATA     BIT       PX0
      000000E1H   SFRSYM    DATA     BYTE      WDT_CONTR
      000000B8H.2 SFRSYM    DATA     BIT       PX1
      00000083H   SFRSYM    DATA     BYTE      DPH
      00000082H   SFRSYM    DATA     BYTE      DPL
      000000B7H   SFRSYM    DATA     BYTE      IPH
LX51 LINKER/LOCATER V4.66.97.0                                                        02/04/2022  22:44:32  PAGE 8


      000000C8H.3 SFRSYM    DATA     BIT       EXEN2
      00000098H.4 SFRSYM    DATA     BIT       REN
      000000C9H   SFRSYM    DATA     BYTE      T2MOD
      000000C8H   SFRSYM    DATA     BYTE      T2CON
      000000E2H   SFRSYM    DATA     BYTE      ISP_DATA
      000000B9H   SFRSYM    DATA     BYTE      SADEN
      000000B0H.0 SFRSYM    DATA     BIT       RXD
      000000A9H   SFRSYM    DATA     BYTE      SADDR
      000000B0H.1 SFRSYM    DATA     BIT       TXD
      000000A2H   SFRSYM    DATA     BYTE      AUXR1
      000000D0H.5 SFRSYM    DATA     BIT       F0
      000000D0H   SFRSYM    DATA     BYTE      PSW

      0100043DH   BLOCK     CODE     ---       LVL=0
      0100043DH   LINE      CODE     ---       #32
      0100043DH   LINE      CODE     ---       #33
      0100043DH   LINE      CODE     ---       #34
      0100043FH   LINE      CODE     ---       #36
      01000448H   LINE      CODE     ---       #37
      0100044FH   LINE      CODE     ---       #38
      0100044FH   LINE      CODE     ---       #39
      0100044FH   LINE      CODE     ---       #40
      01000452H   LINE      CODE     ---       #41
      01000452H   LINE      CODE     ---       #42
      01000454H   LINE      CODE     ---       #43
      01000457H   LINE      CODE     ---       #44
      01000457H   LINE      CODE     ---       #45
      ---         BLOCKEND  ---      ---       LVL=0

      010002C6H   BLOCK     CODE     ---       LVL=0
      00000002H   SYMBOL    DATA     WORD      ms
      010002C6H   BLOCK     CODE     NEAR LAB  LVL=1
      00000016H   SYMBOL    DATA     DWORD     tmp
      ---         BLOCKEND  ---      ---       LVL=1
      010002C6H   LINE      CODE     ---       #49
      010002C6H   LINE      CODE     ---       #50
      010002C6H   LINE      CODE     ---       #53
      010002D2H   LINE      CODE     ---       #54
      010002F2H   LINE      CODE     ---       #55
      01000308H   LINE      CODE     ---       #57
      01000316H   LINE      CODE     ---       #58
      01000319H   LINE      CODE     ---       #59
      0100031CH   LINE      CODE     ---       #60
      0100031FH   LINE      CODE     ---       #61
      01000322H   LINE      CODE     ---       #62
      01000325H   LINE      CODE     ---       #63
      01000327H   LINE      CODE     ---       #64
      01000329H   LINE      CODE     ---       #65
      ---         BLOCKEND  ---      ---       LVL=0

      01000255H   BLOCK     CODE     ---       LVL=0
      00000006H   SYMBOL    DATA     WORD      fr
      00000016H   SYMBOL    DATA     BYTE      dc
      01000257H   BLOCK     CODE     NEAR LAB  LVL=1
      00000004H   SYMBOL    DATA     WORD      high
      00000002H   SYMBOL    DATA     WORD      low
      ---         BLOCKEND  ---      ---       LVL=1
      01000255H   LINE      CODE     ---       #68
      01000257H   LINE      CODE     ---       #69
      01000257H   LINE      CODE     ---       #72
      0100026FH   LINE      CODE     ---       #73
      0100028DH   LINE      CODE     ---       #74
      01000298H   LINE      CODE     ---       #75
      0100029FH   LINE      CODE     ---       #77
      010002A5H   LINE      CODE     ---       #79
LX51 LINKER/LOCATER V4.66.97.0                                                        02/04/2022  22:44:32  PAGE 9


      010002A7H   LINE      CODE     ---       #80
      010002A9H   LINE      CODE     ---       #81
      010002ABH   LINE      CODE     ---       #82
      010002ADH   LINE      CODE     ---       #83
      010002B0H   LINE      CODE     ---       #84
      010002B3H   LINE      CODE     ---       #85
      010002B6H   LINE      CODE     ---       #86
      010002B9H   LINE      CODE     ---       #87
      010002BBH   LINE      CODE     ---       #88
      010002BDH   LINE      CODE     ---       #89
      010002C5H   LINE      CODE     ---       #90
      ---         BLOCKEND  ---      ---       LVL=0

      0100036EH   BLOCK     CODE     ---       LVL=0
      00000007H   SYMBOL    DATA     BYTE      dc
      0100036EH   BLOCK     CODE     NEAR LAB  LVL=1
      00000004H   SYMBOL    DATA     WORD      high
      00000002H   SYMBOL    DATA     WORD      low
      ---         BLOCKEND  ---      ---       LVL=1
      0100036EH   LINE      CODE     ---       #93
      0100036EH   LINE      CODE     ---       #94
      0100036EH   LINE      CODE     ---       #97
      0100038AH   LINE      CODE     ---       #98
      01000395H   LINE      CODE     ---       #99
      0100039CH   LINE      CODE     ---       #100
      010003A2H   LINE      CODE     ---       #101
      010003A4H   LINE      CODE     ---       #102
      010003A6H   LINE      CODE     ---       #103
      010003A8H   LINE      CODE     ---       #104
      010003AAH   LINE      CODE     ---       #105
      ---         BLOCKEND  ---      ---       LVL=0

      010003E2H   BLOCK     CODE     ---       LVL=0
      010003E2H   LINE      CODE     ---       #108
      010003E2H   LINE      CODE     ---       #109
      010003E2H   LINE      CODE     ---       #110
      010003E6H   LINE      CODE     ---       #111
      010003E6H   LINE      CODE     ---       #112
      010003F2H   LINE      CODE     ---       #113
      010003F2H   LINE      CODE     ---       #114
      010003F2H   LINE      CODE     ---       #115
      010003F5H   LINE      CODE     ---       #116
      010003F8H   LINE      CODE     ---       #117
      010003F8H   LINE      CODE     ---       #118
      010003FAH   LINE      CODE     ---       #119
      010003FAH   LINE      CODE     ---       #120
      010003FDH   LINE      CODE     ---       #121
      01000400H   LINE      CODE     ---       #122
      01000400H   LINE      CODE     ---       #123
      01000402H   LINE      CODE     ---       #124
      01000402H   LINE      CODE     ---       #125
      01000405H   LINE      CODE     ---       #126
      01000408H   LINE      CODE     ---       #127
      01000410H   LINE      CODE     ---       #128
      01000411H   LINE      CODE     ---       #129
      01000411H   LINE      CODE     ---       #130
      01000411H   LINE      CODE     ---       #131
      01000411H   LINE      CODE     ---       #132
      01000411H   LINE      CODE     ---       #134
      01000411H   LINE      CODE     ---       #135
      01000413H   LINE      CODE     ---       #136
      01000413H   LINE      CODE     ---       #137
      ---         BLOCKEND  ---      ---       LVL=0

      010003ABH   BLOCK     CODE     ---       LVL=0
LX51 LINKER/LOCATER V4.66.97.0                                                        02/04/2022  22:44:32  PAGE 10


      010003ABH   LINE      CODE     ---       #140
      010003B8H   LINE      CODE     ---       #142
      010003BEH   LINE      CODE     ---       #143
      010003BEH   LINE      CODE     ---       #144
      010003C1H   LINE      CODE     ---       #145
      010003C4H   LINE      CODE     ---       #146
      010003CCH   LINE      CODE     ---       #147
      010003CEH   LINE      CODE     ---       #149
      010003CEH   LINE      CODE     ---       #150
      010003D1H   LINE      CODE     ---       #151
      010003D4H   LINE      CODE     ---       #152
      010003D7H   LINE      CODE     ---       #153
      010003D7H   LINE      CODE     ---       #154
      ---         BLOCKEND  ---      ---       LVL=0

      010001DAH   BLOCK     CODE     ---       LVL=0
      010001F7H   BLOCK     CODE     NEAR LAB  LVL=1
      00000008H   SYMBOL    DATA     BYTE      idx
      00000020H.0 SYMBOL    BIT      BIT       dir
      00000009H   SYMBOL    DATA     BYTE      cnt_50ms
      01000011H   SYMBOL    CONST    ---       table
      ---         BLOCKEND  ---      ---       LVL=1
      010001DAH   LINE      CODE     ---       #157
      010001F7H   LINE      CODE     ---       #168
      010001FAH   LINE      CODE     ---       #169
      010001FDH   LINE      CODE     ---       #171
      010001FFH   LINE      CODE     ---       #172
      01000205H   LINE      CODE     ---       #173
      01000205H   LINE      CODE     ---       #174
      01000207H   LINE      CODE     ---       #175
      01000209H   LINE      CODE     ---       #176
      01000209H   LINE      CODE     ---       #178
      01000214H   LINE      CODE     ---       #179
      01000214H   LINE      CODE     ---       #180
      0100021EH   LINE      CODE     ---       #181
      01000221H   LINE      CODE     ---       #182
      01000221H   LINE      CODE     ---       #183
      01000223H   LINE      CODE     ---       #184
      0100022EH   LINE      CODE     ---       #185
      0100022EH   LINE      CODE     ---       #186
      01000230H   LINE      CODE     ---       #187
      01000230H   LINE      CODE     ---       #188
      01000232H   LINE      CODE     ---       #190
      01000232H   LINE      CODE     ---       #191
      01000234H   LINE      CODE     ---       #192
      01000238H   LINE      CODE     ---       #193
      01000238H   LINE      CODE     ---       #194
      0100023AH   LINE      CODE     ---       #195
      0100023AH   LINE      CODE     ---       #196
      0100023AH   LINE      CODE     ---       #197
      0100023AH   LINE      CODE     ---       #198
      ---         BLOCKEND  ---      ---       LVL=0

      ---         MODULE    ---      ---       ?C_INIT
      01000195H   PUBLIC    CODE     ---       ?C_START

      ---         MODULE    ---      ---       ?C?LMUL
      0100001EH   PUBLIC    CODE     ---       ?C?LMUL

      ---         MODULE    ---      ---       ?C?ULDIV
      010000A9H   PUBLIC    CODE     ---       ?C?ULDIV

      ---         MODULE    ---      ---       ?C?SLDIV
      0100032AH   PUBLIC    CODE     ---       ?C?SLDIV

LX51 LINKER/LOCATER V4.66.97.0                                                        02/04/2022  22:44:32  PAGE 11


      ---         MODULE    ---      ---       ?C?ULSHR
      0100013BH   PUBLIC    CODE     ---       ?C?ULSHR

Program Size: data=27.2 xdata=0 const=13 code=1092
LX51 RUN COMPLETE.  0 WARNING(S),  0 ERROR(S)
