C51 COMPILER V9.60.0.0   MAIN                                                              01/30/2022 17:43:39 PAGE 1   


C51 COMPILER V9.60.0.0, COMPILATION OF MODULE MAIN
OBJECT MODULE PLACED IN .\build\Target 1\main.o
COMPILER INVOKED BY: C:\Keil_v5\C51\BIN\C51.exe .\MAIN.C PRINT(.\build\Target 1\main.lst) OMF2 TABS(4) CODE NOCOND SYMBO
                    -LS OPTIMIZE(8,SPEED) SMALL ROM(LARGE) INCDIR(C:\Keil_v5\C51\INC\STC;C:\Keil_v5\C51\INC) DEFINE(__UVISION_VERSION=526) OB
                    -JECT(.\build\Target 1\main.o)

line level    source

   1          /*
   2           * @Descripttion: ç®€æ˜“å››åˆ™è¿ç®—è®¡ç®—å™¨ï¼ˆå‚ä¸è¿ç®—çš„æ•°ã€æœ€ç»ˆç»“æœå’Œä¸­é—´ç»“æœéƒ½åªèƒ½ä
             -¸ºè‡ªç„¶æ•°ï¼Œä¸æ”¯æŒè¿ç®—ä¼˜å…ˆçº§åˆ¤æ–­ï¼Œåªèƒ½æŒ‰ç…§è¾“å…¥é¡ºåºä¾æ¬¡è®¡ç®—ï¼‰
   3           * @Author: äº”æœˆé›¨
   4           * @Date: 2022-01-21 15:33:38
   5           * @LastEditors: äº”æœˆé›¨
   6           * @LastEditTime: 2022-01-30 17:42:51
   7           * @Board: æ¸…ç¿”51å¼€å‘æ¿
   8           * @Chip: STC89C52
   9           */
  10          #include <STC89C5xRC.H>
  11          
  12          sbit SEG = P2^6;                        //æ•°ç ç®¡ä½é€‰
  13          sbit DIG = P2^7;                        //æ•°ç ç®¡æ®µé€‰
  14          sbit KEY_ROW_1 = P3^0;
  15          sbit KEY_ROW_2 = P3^1;
  16          sbit KEY_ROW_3 = P3^2;
  17          sbit KEY_ROW_4 = P3^3;
  18          sbit KEY_COL_1 = P3^4;     
  19          sbit KEY_COL_2 = P3^5;
  20          sbit KEY_COL_3 = P3^6;
  21          sbit KEY_COL_4 = P3^7;
  22          
  23          unsigned char code LedChar[] = {        //æ•°ç ç®¡æ˜¾ç¤ºå­—ç¬¦è½¬æ¢è¡¨
  24              0x3F, 0x06, 0x5B, 0x4F, 0x66, 0x6D, 0x7D, 0x07, 
  25              0x7F, 0x6F, 0x77, 0x7C, 0x39, 0x5E, 0x79, 0x71
  26          };
  27          unsigned char LedBuf[] = {              //æ•°ç ç®¡æ˜¾ç¤ºç¼“å†²åŒº
  28              0x00, 0x00, 0x00, 0x00, 0x00, 0x00, 0x00, 0x00
  29          };
  30          unsigned char code KeyCodeMap[4][4] = { //æŒ‰é”®æ˜ å°„
  31              {0x31, 0x32, 0x33, 0x25},           /*  1    2    3    +  */
  32              {0x34, 0x35, 0x36, 0x26},           /*  4    5    6    -  */
  33              {0x37, 0x38, 0x39, 0x27},           /*  7    8    9    *  */
  34              {0x30, 0x1B, 0x0D, 0x28}            /*  0    CE   =    /  */
  35          };
  36          unsigned char KeyStaCur[4][4] = {          //æŒ‰é”®å½“å‰çŠ¶æ€å­˜å‚¨
  37              {1, 1, 1, 1}, {1, 1, 1, 1}, {1, 1, 1, 1}, {1, 1, 1, 1}
  38          };
  39          
  40          //è¿ç®—ç§ç±»æ ‡è®°å˜é‡
  41          bit flag_add = 0;
  42          bit flag_sub = 0;
  43          bit flag_mul = 0;
  44          bit flag_div = 0;
  45          //ä»¥ä¸‹å˜é‡å®šä¹‰ä¸ºå…¨å±€å˜é‡æ–¹ä¾¿å‡½æ•°çš„ç¼–å†™
  46          unsigned long result = 0;                //ä¿å­˜è¿ç®—ç»“æœ
  47          unsigned long op = 0;                    //ä¿å­˜å‚ä¸è¿ç®—çš„æ•°å­—
  48          unsigned char cnt_opration = 0;          //è®°å½•è¿ç®—æ¬¡æ•°ï¼Œç”¨äºå¤šæ¬¡è¿ç®—ä¸­åˆ¤æ–­æ˜¯å¦éœ€è¦è®¡
             -ç®—ä¸­é—´ç»“æœ
  49          
  50          void ShowNumber(unsigned long num);
  51          void DoCalculate();
C51 COMPILER V9.60.0.0   MAIN                                                              01/30/2022 17:43:39 PAGE 2   

  52          void KeyAction(unsigned char keycode);
  53          void KeyDrive();
  54          void LedScan(unsigned char x);
  55          void KeyScan();
  56          
  57          void main()
  58          {
  59   1          //æ³¨æ„æ­¤å¤„çš„ä¸­æ–­æ—¶é—´éœ€è¦è€ƒè™‘ä¸¤ä¸ªæ–¹é¢
  60   1          //ä¸€æ˜¯æ•°ç ç®¡æ‰«æåˆ·æ–°ç‡è¦è¾ƒé«˜ï¼ˆæ‰«æå®Œ8ä½æœ€å¥½åœ¨10msä¹‹å†…å®Œæˆï¼Œå¯ä»¥ç²—ç•¥è®¤ä¸
             -ºæ‰«æä¸€ä½éœ€è¦1msï¼‰
  61   1          //é‚£ä¹ˆä¸­æ–­æ—¶é—´åœ¨1~2msçš„åˆ·æ–°ç‡éƒ½æ˜¯è¾ƒé«˜çš„
  62   1          //äºŒæ˜¯äººæŒ‰ä¸‹æŒ‰é”®åœ¨åˆ°æ¾æ‰‹çš„æ—¶é—´ï¼Œä¸€èˆ¬åœ¨100mså·¦å³ï¼Œåˆ»æ„åŠ é€Ÿä¹Ÿåªèƒ½åˆ°40~50mså
             -·¦å³
  63   1          //æ‰€ä»¥ä¸­æ–­æ‰«ææ—¶é—´åœ¨1~2msï¼Œä¹Ÿèƒ½å¤Ÿæ»¡è¶³åœ¨è¿™ä¸ªæ—¶é—´å†…è½®è¯¢å®Œæ‰€æœ‰çŸ©é˜µæŒ‰é”®çš„çŠ
             -¶æ€
  64   1          //è¿™é‡Œæ¨èä¸­æ–­æ—¶é—´é‡‡ç”¨1ms
  65   1          EA = 1;                     //ä½¿èƒ½æ€»ä¸­æ–­
  66   1          TMOD = 0x01;                //ä½¿ç”¨å®šæ—¶å™¨0çš„å·¥ä½œæ¨¡å¼1
  67   1          TH0 = 0xFC;                 //ä¸­æ–­é—´éš”æ—¶é—´ä¸º1ms
  68   1          TL0 = 0x67;
  69   1          ET0 = 1;                    //ä½¿èƒ½T0ä¸­æ–­
  70   1          TR0 = 1;                    //å¼€å¯T0
  71   1          LedBuf[7] = LedChar[0];     //ä¸Šç”µæ˜¾ç¤º0
  72   1      
  73   1          while (1)
  74   1          {
  75   2              KeyDrive();
  76   2          }
  77   1      }
  78          
  79          /* å°†ä¸€ä¸ªæ— ç¬¦å·é•¿æ•´å½¢çš„æ•°å­—æ˜¾ç¤ºåˆ°æ•°ç ç®¡ä¸Šï¼Œnumä¸ºå¾…æ˜¾ç¤ºæ•°å­— */
  80          void ShowNumber(unsigned long num)
  81          {
  82   1          signed char i;              //æ³¨æ„ä½¿ç”¨æœ‰ç¬¦å·ç±»å‹é˜²æ­¢æº¢å‡º
  83   1          unsigned char buf[8];       //æ˜¾ç¤ºè½¬æ¢ç¼“å†²åŒº
  84   1          for(i = 7; i >= 0; i--)     //å°†numè½¬æ¢ä¸ºæ•°ç»„è¡¨ç¤ºï¼Œæ­¤å¤„æ•°ç»„ä¸­é€†åºå­˜æ”¾æ•°å­—æ˜¯ä¸ºäº†
             -ä¾¿äºåé¢éå†
  85   1          {
  86   2              buf[i] = num % 10;
  87   2              num /= 10;
  88   2          }
  89   1          for(i = 0; i <= 6; i++)      //å»é™¤å‰ç¼€0
  90   1          {
  91   2              if(buf[i] == 0)
  92   2                  LedBuf[i] = 0x00;
  93   2              else
  94   2                  break;
  95   2          }
  96   1          for( ; i <= 7; i++)         //å‰©ä½™ä½ä½è½¬æ¢ä¸ºæ•°ç ç®¡æ˜¾ç¤ºå­—ç¬¦
  97   1          {
  98   2              LedBuf[i] = LedChar[buf[i]];
  99   2          }
 100   1      }
 101          
 102          /* è¿ç®—æ‰§è¡Œå‡½æ•°ï¼Œæ ¹æ®è¿ç®—ç§ç±»æ ‡è®°å˜é‡æ¥æ‰§è¡Œ */
 103          void DoCalculate()
 104          {
 105   1          if(flag_add)
 106   1          {
 107   2              result += op;
 108   2              flag_add = 0;
 109   2          }
C51 COMPILER V9.60.0.0   MAIN                                                              01/30/2022 17:43:39 PAGE 3   

 110   1          else if(flag_sub)
 111   1          {
 112   2              result -= op;
 113   2              flag_sub = 0;
 114   2          }
 115   1          else if(flag_mul)
 116   1          {
 117   2              result *= op;
 118   2              flag_mul = 0;
 119   2          }
 120   1          else if(flag_div)
 121   1          {
 122   2              result /= op;
 123   2              flag_div = 0;
 124   2          }
 125   1      }
 126          
 127          /* æŒ‰é”®åŠ¨ä½œå‡½æ•°ï¼Œæ ¹æ®é”®ç æ‰§è¡Œç›¸åº”çš„æ“ä½œï¼Œkeycodeä¸ºæŒ‰é”®é”®ç  */
 128          void KeyAction(unsigned char keycode)
 129          {
 130   1          if((keycode >= 0x30) && (keycode <= 0x39))  //è¾“å…¥0~9çš„æ•°å­—
 131   1          {
 132   2              op = (op * 10) + (keycode - 0x30);
 133   2              ShowNumber(op);
 134   2          }
 135   1          else if(keycode == 0x25)    //åŠ æ³•è¿ç®—
 136   1          {
 137   2              if(cnt_opration > 0)    //è‹¥å¼å­ä¸­è¿ç®—æ¬¡æ•°å¤§äºä¸€ï¼Œå…ˆè¿›è¡Œä¸€æ¬¡è¿ç®—
 138   2              {
 139   3                  DoCalculate();      //å¾—åˆ°çš„è¿ç®—ç»“æœç”¨äºè¿›è¡Œä¸‹ä¸€æ¬¡è¿ç®—
 140   3                  cnt_opration--;
 141   3              }
 142   2              else
 143   2              {
 144   3                  result = op;        //å°†opçš„å€¼å­˜å‚¨åˆ°resultä¸­ï¼Œä¾¿äºç¬¬äºŒä¸ªè¿ç®—æ•°çš„è¾“å…¥
 145   3              } 
 146   2              flag_add = 1;           //æ ‡è®°æœ‰ä¸€æ¬¡åŠ è¿ç®—éœ€è¦æ‰§è¡Œ
 147   2              cnt_opration++;         //ç­‰å¾…æ‰§è¡Œçš„è¿ç®—æ•°é‡åŠ ä¸€
 148   2              op = 0;                 //æ¸…é›¶opå˜é‡ï¼Œä»¥å­˜å‚¨ä¸‹ä¸€ä¸ªè¿ç®—æ•°çš„è¾“å…¥
 149   2          }
 150   1          else if(keycode == 0x26)    //å‡æ³•è¿ç®—
 151   1          {
 152   2              if(cnt_opration > 0)
 153   2              {
 154   3                  DoCalculate();
 155   3                  cnt_opration--;
 156   3              }
 157   2              else
 158   2              {
 159   3                  result = op;
 160   3              } 
 161   2              flag_sub = 1;
 162   2              cnt_opration++;
 163   2              op = 0; 
 164   2          }
 165   1          else if(keycode == 0x27)    //ä¹˜æ³•è¿ç®—
 166   1          {
 167   2              if(cnt_opration > 0)
 168   2              {
 169   3                  DoCalculate();
 170   3                  cnt_opration--;
 171   3              }
C51 COMPILER V9.60.0.0   MAIN                                                              01/30/2022 17:43:39 PAGE 4   

 172   2              else
 173   2              {
 174   3                  result = op;
 175   3              } 
 176   2              flag_mul = 1;
 177   2              cnt_opration++;
 178   2              op = 0;
 179   2          }
 180   1          else if(keycode == 0x28)    //é™¤æ³•è¿ç®—
 181   1          {
 182   2              if(cnt_opration > 0)
 183   2              {
 184   3                  DoCalculate();
 185   3                  cnt_opration--;
 186   3              }
 187   2              else
 188   2              {
 189   3                  result = op;
 190   3              } 
 191   2              flag_div = 1;
 192   2              cnt_opration++;
 193   2              op = 0;
 194   2          }
 195   1          else if(keycode == 0x0D)    //ç­‰å·
 196   1          {
 197   2              DoCalculate();
 198   2              ShowNumber(result);
 199   2              result = 0;
 200   2              cnt_opration = 0;
 201   2              op = 0;
 202   2          }
 203   1          else if (keycode == 0x1B)   //æ ‡å‡†è®¡ç®—å™¨ä¸­çš„CEæ“ä½œ
 204   1          {
 205   2              op = 0;
 206   2              ShowNumber(op);
 207   2          }
 208   1      }
 209          
 210          /* æŒ‰é”®é©±åŠ¨å‡½æ•°ï¼Œæ£€æµ‹æŒ‰é”®åŠ¨ä½œï¼Œè°ƒåº¦ç›¸åº”åŠ¨ä½œå‡½æ•° */
 211          void KeyDrive()
 212          {
 213   1          unsigned char i, j;
 214   1          static unsigned char backup[4][4] = {    //æŒ‰é”®çŠ¶æ€å¤‡ä»½ï¼Œä¿å­˜å‰ä¸€æ¬¡çš„å€¼
 215   1              {1, 1, 1, 1}, {1, 1, 1, 1}, {1, 1, 1, 1}, {1, 1, 1, 1}
 216   1          };
 217   1      
 218   1          //çŸ©é˜µé”®ç›˜æŒ‰é”®çŠ¶æ€å¾ªç¯æ£€æµ‹
 219   1          for(i = 0; i < 4; i++)
 220   1          {
 221   2              for(j = 0; j < 4; j++)
 222   2              {
 223   3                  if(backup[i][j] != KeyStaCur[i][j]) //æ£€æµ‹æŒ‰é”®çŠ¶æ€å˜åŒ–ï¼Œè‹¥è¿™ä¸€æ¬¡ä¸å‰ä¸€æ¬¡çŠ¶æ€
             -ä¸åŒï¼Œåˆ™æŒ‰é”®äº§ç”Ÿäº†åŠ¨ä½œï¼Œä»è€Œæ ¹æ®éœ€è¦æ¥æ‰§è¡Œæ“ä½œ
 224   3                  {
 225   4                      if(KeyStaCur[i][j] == 0)        //è‹¥è¯¥æŒ‰é”®æŒ‰ä¸‹
 226   4                      {
 227   5                          KeyAction(KeyCodeMap[i][j]);
 228   5                      }
 229   4                      backup[i][j] = KeyStaCur[i][j];
 230   4                  }
 231   3              }
 232   2          }
C51 COMPILER V9.60.0.0   MAIN                                                              01/30/2022 17:43:39 PAGE 5   

 233   1      }
 234          
 235          /* æŒ‰é”®æ‰«æå‡½æ•°ï¼Œéœ€è¦åœ¨å®šæ—¶ä¸­æ–­ä¸­è°ƒç”¨ */
 236          void KeyScan()
 237          {
 238   1          unsigned char keycol;                                    //çŸ©é˜µæŒ‰é”®æ‰«æåˆ—ç´¢å¼•
 239   1          static unsigned char keyrow = 0;                         //çŸ©é˜µæŒ‰é”®æ‰«æè¡Œç´¢å¼•
 240   1          static unsigned char keybuf[4][4] = {                    //çŸ©é˜µæŒ‰é”®çŠ¶æ€ç¼“å†²åŒº
 241   1              {0xFF, 0xFF, 0xFF, 0xFF}, {0xFF, 0xFF, 0xFF, 0xFF},
 242   1              {0xFF, 0xFF, 0xFF, 0xFF}, {0xFF, 0xFF, 0xFF, 0xFF}
 243   1          };
 244   1      
 245   1          //å°†å½“å‰è¡Œçš„æ¯ä¸ªæŒ‰é”®çŠ¶æ€å­˜å…¥ç¼“å†²åŒºä¸­
 246   1          keybuf[keyrow][0] = (keybuf[keyrow][0] << 1) | KEY_COL_1;
 247   1          keybuf[keyrow][1] = (keybuf[keyrow][1] << 1) | KEY_COL_2;
 248   1          keybuf[keyrow][2] = (keybuf[keyrow][2] << 1) | KEY_COL_3;
 249   1          keybuf[keyrow][3] = (keybuf[keyrow][3] << 1) | KEY_COL_4;
 250   1      
 251   1          //ç”±äºæœºæ¢°æŒ‰é”®çš„æŠ–åŠ¨æ—¶é—´ä¸€èˆ¬åœ¨10mså†…
 252   1          //æ­¤å¤„æ‰«æé’ˆå¯¹äºæ¯ä¸ªæŒ‰é”®è¿ç»­é‡‡æ ·å››æ¬¡ï¼Œé‡‡æ ·æ—¶é—´ä¸º1ms
 253   1          //ç”±äºæ¯æ¬¡ä¸­æ–­åªæ‰«æä¸€è¡Œï¼Œä¸‹åˆ—åˆ¤æ–­æˆç«‹çš„æ¡ä»¶ä¸º
 254   1          //å½“ä¸€ä¸ªæŒ‰é”®è¿ç»­16msï¼ˆä¸­æ–­é—´éš”1ms Ã— æŒ‰é”®åˆ—æ•°4 Ã— é‡‡æ ·æ¬¡æ•°4ï¼‰ä¿æŒæŒ‰ä¸‹æˆ–å¼¹èµ
             -·ï¼Œåˆ™å¯è®¤ä¸ºæŒ‰é”®å°±æ˜¯æŒ‰ä¸‹æˆ–å¼¹èµ·çŠ¶æ€
 255   1          //è¿™æ ·æ—¢æ£€æµ‹åˆ°äº†æŒ‰é”®çŠ¶æ€ï¼Œåˆèƒ½è¾¾åˆ°å»æŠ–æ•ˆæœ
 256   1          for(keycol = 0; keycol < 4; keycol++)
 257   1          {
 258   2              if((keybuf[keyrow][keycol] & 0x0F) == 0x00)          //æŒ‰é”®æŒ‰ä¸‹
 259   2                  KeyStaCur[keyrow][keycol] = 0;
 260   2              else if((keybuf[keyrow][keycol] & 0x0F) == 0x0F)     //æŒ‰é”®å¼¹èµ·
 261   2                  KeyStaCur[keyrow][keycol] = 1;
 262   2          }
 263   1      
 264   1          keyrow++;                                                //å‡†å¤‡è¿›è¡Œä¸‹ä¸€è¡Œçš„æ‰«æ
 265   1          keyrow &= 0x03;                                  //æ§åˆ¶è¡Œç´¢å¼•åœ¨0~3ä»¥å†…å˜åŒ–
 266   1          switch(keyrow)                                           //æ ¹æ®è¡Œç´¢å¼•æ”¹å˜ç”µå¹³ï¼Œä»¥è¿›è¡Œå¯¹å
             -º”æŸè¡ŒæŒ‰é”®çš„æ‰«æ
 267   1          {
 268   2              case 0: KEY_ROW_4 = 1; KEY_ROW_1 = 0; break;
 269   2              case 1: KEY_ROW_1 = 1; KEY_ROW_2 = 0; break;
 270   2              case 2: KEY_ROW_2 = 1; KEY_ROW_3 = 0; break;
 271   2              case 3: KEY_ROW_3 = 1; KEY_ROW_4 = 0; break;
 272   2              default: break;
 273   2          }
 274   1      }
 275          
 276          /* æ•°ç ç®¡åŠ¨æ€æ‰«æåˆ·æ–°æ˜¾ç¤ºå‡½æ•°ï¼Œéœ€åœ¨å®šæ—¶å™¨ä¸­æ–­ä¸­è°ƒç”¨ */
 277          void LedScan(unsigned char x)
 278          {
 279   1          P0 = 0x00;      //é˜²æ­¢äº§ç”Ÿäº¤æ›¿é‡å½±
 280   1          SEG = 1;
 281   1          SEG = 0;
 282   1      
 283   1          P0 = 0xFF;      //ä½æ¶ˆéš
 284   1          DIG = 1;
 285   1          P0 &= ~(1 << x);
 286   1          DIG = 0;
 287   1          
 288   1          P0 = 0x00;      //æ®µæ¶ˆéš
 289   1          SEG = 1;
 290   1          P0 = LedBuf[x];
 291   1          SEG = 0;
 292   1      }
C51 COMPILER V9.60.0.0   MAIN                                                              01/30/2022 17:43:39 PAGE 6   

 293          
 294          /* T0ä¸­æ–­æœåŠ¡å‡½æ•°ï¼Œç”¨äºæ•°ç ç®¡æ˜¾ç¤ºæ‰«æä¸æŒ‰é”®æ‰«æ */
 295          void InterruptTimer0() interrupt 1
 296          {
 297   1          static unsigned idx = 0;                        //æ•°ç ç®¡æ‰«æä½ç´¢å¼•
 298   1          
 299   1          TH0 = 0xFC;                                     //T0å€¼é‡è½½
 300   1          TL0 = 0x67;
 301   1      
 302   1          LedScan(idx);
 303   1          if(idx < 7)
 304   1              idx++;
 305   1          else 
 306   1              idx = 0;
 307   1          KeyScan();
 308   1      }
C51 COMPILER V9.60.0.0   MAIN                                                              01/30/2022 17:43:39 PAGE 7   

ASSEMBLY LISTING OF GENERATED OBJECT CODE


             ; FUNCTION main (BEGIN)
                                           ; SOURCE LINE # 57
                                           ; SOURCE LINE # 58
                                           ; SOURCE LINE # 65
0000 D2AF              SETB    EA
                                           ; SOURCE LINE # 66
0002 758901            MOV     TMOD,#01H
                                           ; SOURCE LINE # 67
0005 758CFC            MOV     TH0,#0FCH
                                           ; SOURCE LINE # 68
0008 758A67            MOV     TL0,#067H
                                           ; SOURCE LINE # 69
000B D2A9              SETB    ET0
                                           ; SOURCE LINE # 70
000D D28C              SETB    TR0
                                           ; SOURCE LINE # 71
000F 900000      R     MOV     DPTR,#LedChar
0012 E4                CLR     A
0013 93                MOVC    A,@A+DPTR
0014 F500        R     MOV     LedBuf+07H,A
0016         ?C0001:
                                           ; SOURCE LINE # 73
                                           ; SOURCE LINE # 74
                                           ; SOURCE LINE # 75
0016 120000      R     LCALL   KeyDrive
                                           ; SOURCE LINE # 76
0019 80FB              SJMP    ?C0001
             ; FUNCTION main (END)

             ; FUNCTION _ShowNumber (BEGIN)
                                           ; SOURCE LINE # 80
0000 8F00        R     MOV     num+03H,R7
0002 8E00        R     MOV     num+02H,R6
0004 8D00        R     MOV     num+01H,R5
0006 8C00        R     MOV     num,R4
                                           ; SOURCE LINE # 81
                                           ; SOURCE LINE # 84
0008 750007      R     MOV     i,#07H
000B         ?C0004:
000B AF00        R     MOV     R7,i
000D EF                MOV     A,R7
000E 33                RLC     A
000F 95E0              SUBB    A,ACC
0011 C3                CLR     C
0012 6480              XRL     A,#080H
0014 9480              SUBB    A,#080H
0016 4037              JC      ?C0005
                                           ; SOURCE LINE # 85
                                           ; SOURCE LINE # 86
0018 E4                CLR     A
0019 7B0A              MOV     R3,#0AH
001B FA                MOV     R2,A
001C F9                MOV     R1,A
001D F8                MOV     R0,A
001E AF00        R     MOV     R7,num+03H
0020 AE00        R     MOV     R6,num+02H
0022 AD00        R     MOV     R5,num+01H
0024 AC00        R     MOV     R4,num
0026 120000      E     LCALL   ?C?ULDIV
C51 COMPILER V9.60.0.0   MAIN                                                              01/30/2022 17:43:39 PAGE 8   

0029 AF03              MOV     R7,AR3
002B 7400        R     MOV     A,#LOW buf
002D 2500        R     ADD     A,i
002F F8                MOV     R0,A
0030 A607              MOV     @R0,AR7
                                           ; SOURCE LINE # 87
0032 AF00        R     MOV     R7,num+03H
0034 AE00        R     MOV     R6,num+02H
0036 AD00        R     MOV     R5,num+01H
0038 AC00        R     MOV     R4,num
003A E4                CLR     A
003B 7B0A              MOV     R3,#0AH
003D FA                MOV     R2,A
003E F9                MOV     R1,A
003F F8                MOV     R0,A
0040 120000      E     LCALL   ?C?ULDIV
0043 8F00        R     MOV     num+03H,R7
0045 8E00        R     MOV     num+02H,R6
0047 8D00        R     MOV     num+01H,R5
0049 8C00        R     MOV     num,R4
                                           ; SOURCE LINE # 88
004B 1500        R     DEC     i
004D 80BC              SJMP    ?C0004
004F         ?C0005:
                                           ; SOURCE LINE # 89
004F E4                CLR     A
0050 F500        R     MOV     i,A
0052         ?C0007:
0052 AF00        R     MOV     R7,i
0054 EF                MOV     A,R7
0055 33                RLC     A
0056 95E0              SUBB    A,ACC
0058 FE                MOV     R6,A
0059 D3                SETB    C
005A EF                MOV     A,R7
005B 9406              SUBB    A,#06H
005D EE                MOV     A,R6
005E 6480              XRL     A,#080H
0060 9480              SUBB    A,#080H
0062 5011              JNC     ?C0012
                                           ; SOURCE LINE # 90
                                           ; SOURCE LINE # 91
0064 7400        R     MOV     A,#LOW buf
0066 2F                ADD     A,R7
0067 F8                MOV     R0,A
0068 E6                MOV     A,@R0
0069 700A              JNZ     ?C0012
                                           ; SOURCE LINE # 92
006B 7400        R     MOV     A,#LOW LedBuf
006D 2F                ADD     A,R7
006E F8                MOV     R0,A
006F E4                CLR     A
0070 F6                MOV     @R0,A
                                           ; SOURCE LINE # 94
                                           ; SOURCE LINE # 95
0071 0500        R     INC     i
0073 80DD              SJMP    ?C0007
                                           ; SOURCE LINE # 96
0075         ?C0012:
0075 AF00        R     MOV     R7,i
0077 EF                MOV     A,R7
0078 33                RLC     A
C51 COMPILER V9.60.0.0   MAIN                                                              01/30/2022 17:43:39 PAGE 9   

0079 95E0              SUBB    A,ACC
007B FE                MOV     R6,A
007C D3                SETB    C
007D EF                MOV     A,R7
007E 9407              SUBB    A,#07H
0080 EE                MOV     A,R6
0081 6480              XRL     A,#080H
0083 9480              SUBB    A,#080H
0085 5015              JNC     ?C0015
                                           ; SOURCE LINE # 97
                                           ; SOURCE LINE # 98
0087 7400        R     MOV     A,#LOW buf
0089 2F                ADD     A,R7
008A F8                MOV     R0,A
008B E6                MOV     A,@R0
008C 900000      R     MOV     DPTR,#LedChar
008F 93                MOVC    A,@A+DPTR
0090 FF                MOV     R7,A
0091 7400        R     MOV     A,#LOW LedBuf
0093 2500        R     ADD     A,i
0095 F8                MOV     R0,A
0096 A607              MOV     @R0,AR7
                                           ; SOURCE LINE # 99
0098 0500        R     INC     i
009A 80D9              SJMP    ?C0012
                                           ; SOURCE LINE # 100
009C         ?C0015:
009C 22                RET     
             ; FUNCTION _ShowNumber (END)

             ; FUNCTION DoCalculate (BEGIN)
                                           ; SOURCE LINE # 103
                                           ; SOURCE LINE # 104
                                           ; SOURCE LINE # 105
0000 30001B            JNB     flag_add,?C0016
                                           ; SOURCE LINE # 106
                                           ; SOURCE LINE # 107
0003 E500        R     MOV     A,result+03H
0005 2500        R     ADD     A,op+03H
0007 F500        R     MOV     result+03H,A
0009 E500        R     MOV     A,result+02H
000B 3500        R     ADDC    A,op+02H
000D F500        R     MOV     result+02H,A
000F E500        R     MOV     A,result+01H
0011 3500        R     ADDC    A,op+01H
0013 F500        R     MOV     result+01H,A
0015 E500        R     MOV     A,result
0017 3500        R     ADDC    A,op
0019 F500        R     MOV     result,A
                                           ; SOURCE LINE # 108
001B C200        R     CLR     flag_add
                                           ; SOURCE LINE # 109
001D 22                RET     
001E         ?C0016:
                                           ; SOURCE LINE # 110
001E 30001C            JNB     flag_sub,?C0018
                                           ; SOURCE LINE # 111
                                           ; SOURCE LINE # 112
0021 C3                CLR     C
0022 E500        R     MOV     A,result+03H
0024 9500        R     SUBB    A,op+03H
0026 F500        R     MOV     result+03H,A
C51 COMPILER V9.60.0.0   MAIN                                                              01/30/2022 17:43:39 PAGE 10  

0028 E500        R     MOV     A,result+02H
002A 9500        R     SUBB    A,op+02H
002C F500        R     MOV     result+02H,A
002E E500        R     MOV     A,result+01H
0030 9500        R     SUBB    A,op+01H
0032 F500        R     MOV     result+01H,A
0034 E500        R     MOV     A,result
0036 9500        R     SUBB    A,op
0038 F500        R     MOV     result,A
                                           ; SOURCE LINE # 113
003A C200        R     CLR     flag_sub
                                           ; SOURCE LINE # 114
003C 22                RET     
003D         ?C0018:
                                           ; SOURCE LINE # 115
003D 30001E            JNB     flag_mul,?C0020
                                           ; SOURCE LINE # 116
                                           ; SOURCE LINE # 117
0040 AF00        R     MOV     R7,result+03H
0042 AE00        R     MOV     R6,result+02H
0044 AD00        R     MOV     R5,result+01H
0046 AC00        R     MOV     R4,result
0048 AB00        R     MOV     R3,op+03H
004A AA00        R     MOV     R2,op+02H
004C A900        R     MOV     R1,op+01H
004E A800        R     MOV     R0,op
0050 120000      E     LCALL   ?C?LMUL
0053 8F00        R     MOV     result+03H,R7
0055 8E00        R     MOV     result+02H,R6
0057 8D00        R     MOV     result+01H,R5
0059 8C00        R     MOV     result,R4
                                           ; SOURCE LINE # 118
005B C200        R     CLR     flag_mul
                                           ; SOURCE LINE # 119
005D 22                RET     
005E         ?C0020:
                                           ; SOURCE LINE # 120
005E 30001D            JNB     flag_div,?C0023
                                           ; SOURCE LINE # 121
                                           ; SOURCE LINE # 122
0061 AF00        R     MOV     R7,result+03H
0063 AE00        R     MOV     R6,result+02H
0065 AD00        R     MOV     R5,result+01H
0067 AC00        R     MOV     R4,result
0069 AB00        R     MOV     R3,op+03H
006B AA00        R     MOV     R2,op+02H
006D A900        R     MOV     R1,op+01H
006F A800        R     MOV     R0,op
0071 120000      E     LCALL   ?C?ULDIV
0074 8F00        R     MOV     result+03H,R7
0076 8E00        R     MOV     result+02H,R6
0078 8D00        R     MOV     result+01H,R5
007A 8C00        R     MOV     result,R4
                                           ; SOURCE LINE # 123
007C C200        R     CLR     flag_div
                                           ; SOURCE LINE # 124
                                           ; SOURCE LINE # 125
007E         ?C0023:
007E 22                RET     
             ; FUNCTION DoCalculate (END)

             ; FUNCTION _KeyAction (BEGIN)
C51 COMPILER V9.60.0.0   MAIN                                                              01/30/2022 17:43:39 PAGE 11  

                                           ; SOURCE LINE # 128
0000 8F00        R     MOV     keycode,R7
                                           ; SOURCE LINE # 129
                                           ; SOURCE LINE # 130
0002 7E00              MOV     R6,#00H
0004 C3                CLR     C
0005 EF                MOV     A,R7
0006 9430              SUBB    A,#030H
0008 7480              MOV     A,#080H
000A 9480              SUBB    A,#080H
000C 404A              JC      ?C0024
000E D3                SETB    C
000F EF                MOV     A,R7
0010 9439              SUBB    A,#039H
0012 7480              MOV     A,#080H
0014 9480              SUBB    A,#080H
0016 5040              JNC     ?C0024
                                           ; SOURCE LINE # 131
                                           ; SOURCE LINE # 132
0018 E4                CLR     A
0019 7F0A              MOV     R7,#0AH
001B FD                MOV     R5,A
001C FC                MOV     R4,A
001D AB00        R     MOV     R3,op+03H
001F AA00        R     MOV     R2,op+02H
0021 A900        R     MOV     R1,op+01H
0023 A800        R     MOV     R0,op
0025 120000      E     LCALL   ?C?LMUL
0028 A804              MOV     R0,AR4
002A A905              MOV     R1,AR5
002C AA06              MOV     R2,AR6
002E AB07              MOV     R3,AR7
0030 E500        R     MOV     A,keycode
0032 24D0              ADD     A,#0D0H
0034 FF                MOV     R7,A
0035 E4                CLR     A
0036 34FF              ADDC    A,#0FFH
0038 FE                MOV     R6,A
0039 33                RLC     A
003A 95E0              SUBB    A,ACC
003C FD                MOV     R5,A
003D FC                MOV     R4,A
003E EB                MOV     A,R3
003F 2F                ADD     A,R7
0040 F500        R     MOV     op+03H,A
0042 EA                MOV     A,R2
0043 3E                ADDC    A,R6
0044 F500        R     MOV     op+02H,A
0046 E9                MOV     A,R1
0047 3D                ADDC    A,R5
0048 F500        R     MOV     op+01H,A
004A E8                MOV     A,R0
004B 3C                ADDC    A,R4
004C F500        R     MOV     op,A
                                           ; SOURCE LINE # 133
004E AF00        R     MOV     R7,op+03H
0050 AE00        R     MOV     R6,op+02H
0052 AD00        R     MOV     R5,op+01H
0054 FC                MOV     R4,A
                                           ; SOURCE LINE # 134
0055 020000      R     LJMP    ?C0075
0058         ?C0024:
C51 COMPILER V9.60.0.0   MAIN                                                              01/30/2022 17:43:39 PAGE 12  

                                           ; SOURCE LINE # 135
0058 E500        R     MOV     A,keycode
005A 6425              XRL     A,#025H
005C 7022              JNZ     ?C0026
                                           ; SOURCE LINE # 136
                                           ; SOURCE LINE # 137
005E D3                SETB    C
005F E500        R     MOV     A,cnt_opration
0061 9400              SUBB    A,#00H
0063 7480              MOV     A,#080H
0065 9480              SUBB    A,#080H
0067 4007              JC      ?C0027
                                           ; SOURCE LINE # 138
                                           ; SOURCE LINE # 139
0069 120000      R     LCALL   DoCalculate
                                           ; SOURCE LINE # 140
006C 1500        R     DEC     cnt_opration
                                           ; SOURCE LINE # 141
006E 800C              SJMP    ?C0028
0070         ?C0027:
                                           ; SOURCE LINE # 143
                                           ; SOURCE LINE # 144
0070 850000      R     MOV     result+03H,op+03H
0073 850000      R     MOV     result+02H,op+02H
0076 850000      R     MOV     result+01H,op+01H
0079 850000      R     MOV     result,op
                                           ; SOURCE LINE # 145
007C         ?C0028:
                                           ; SOURCE LINE # 146
007C D200        R     SETB    flag_add
                                           ; SOURCE LINE # 147
                                           ; SOURCE LINE # 148
                                           ; SOURCE LINE # 149
007E 8076              SJMP    ?C0078
0080         ?C0026:
                                           ; SOURCE LINE # 150
0080 E500        R     MOV     A,keycode
0082 6426              XRL     A,#026H
0084 7022              JNZ     ?C0030
                                           ; SOURCE LINE # 151
                                           ; SOURCE LINE # 152
0086 D3                SETB    C
0087 E500        R     MOV     A,cnt_opration
0089 9400              SUBB    A,#00H
008B 7480              MOV     A,#080H
008D 9480              SUBB    A,#080H
008F 4007              JC      ?C0031
                                           ; SOURCE LINE # 153
                                           ; SOURCE LINE # 154
0091 120000      R     LCALL   DoCalculate
                                           ; SOURCE LINE # 155
0094 1500        R     DEC     cnt_opration
                                           ; SOURCE LINE # 156
0096 800C              SJMP    ?C0032
0098         ?C0031:
                                           ; SOURCE LINE # 158
                                           ; SOURCE LINE # 159
0098 850000      R     MOV     result+03H,op+03H
009B 850000      R     MOV     result+02H,op+02H
009E 850000      R     MOV     result+01H,op+01H
00A1 850000      R     MOV     result,op
                                           ; SOURCE LINE # 160
C51 COMPILER V9.60.0.0   MAIN                                                              01/30/2022 17:43:39 PAGE 13  

00A4         ?C0032:
                                           ; SOURCE LINE # 161
00A4 D200        R     SETB    flag_sub
                                           ; SOURCE LINE # 162
00A6         ?C0076:
                                           ; SOURCE LINE # 163
                                           ; SOURCE LINE # 164
00A6 804E              SJMP    ?C0078
00A8         ?C0030:
                                           ; SOURCE LINE # 165
00A8 E500        R     MOV     A,keycode
00AA 6427              XRL     A,#027H
00AC 7022              JNZ     ?C0034
                                           ; SOURCE LINE # 166
                                           ; SOURCE LINE # 167
00AE D3                SETB    C
00AF E500        R     MOV     A,cnt_opration
00B1 9400              SUBB    A,#00H
00B3 7480              MOV     A,#080H
00B5 9480              SUBB    A,#080H
00B7 4007              JC      ?C0035
                                           ; SOURCE LINE # 168
                                           ; SOURCE LINE # 169
00B9 120000      R     LCALL   DoCalculate
                                           ; SOURCE LINE # 170
00BC 1500        R     DEC     cnt_opration
                                           ; SOURCE LINE # 171
00BE 800C              SJMP    ?C0036
00C0         ?C0035:
                                           ; SOURCE LINE # 173
                                           ; SOURCE LINE # 174
00C0 850000      R     MOV     result+03H,op+03H
00C3 850000      R     MOV     result+02H,op+02H
00C6 850000      R     MOV     result+01H,op+01H
00C9 850000      R     MOV     result,op
                                           ; SOURCE LINE # 175
00CC         ?C0036:
                                           ; SOURCE LINE # 176
00CC D200        R     SETB    flag_mul
                                           ; SOURCE LINE # 177
00CE         ?C0077:
                                           ; SOURCE LINE # 178
                                           ; SOURCE LINE # 179
00CE 8026              SJMP    ?C0078
00D0         ?C0034:
                                           ; SOURCE LINE # 180
00D0 E500        R     MOV     A,keycode
00D2 6428              XRL     A,#028H
00D4 7025              JNZ     ?C0038
                                           ; SOURCE LINE # 181
                                           ; SOURCE LINE # 182
00D6 D3                SETB    C
00D7 E500        R     MOV     A,cnt_opration
00D9 9400              SUBB    A,#00H
00DB 7480              MOV     A,#080H
00DD 9480              SUBB    A,#080H
00DF 4007              JC      ?C0039
                                           ; SOURCE LINE # 183
                                           ; SOURCE LINE # 184
00E1 120000      R     LCALL   DoCalculate
                                           ; SOURCE LINE # 185
00E4 1500        R     DEC     cnt_opration
C51 COMPILER V9.60.0.0   MAIN                                                              01/30/2022 17:43:39 PAGE 14  

                                           ; SOURCE LINE # 186
00E6 800C              SJMP    ?C0040
00E8         ?C0039:
                                           ; SOURCE LINE # 188
                                           ; SOURCE LINE # 189
00E8 850000      R     MOV     result+03H,op+03H
00EB 850000      R     MOV     result+02H,op+02H
00EE 850000      R     MOV     result+01H,op+01H
00F1 850000      R     MOV     result,op
                                           ; SOURCE LINE # 190
00F4         ?C0040:
                                           ; SOURCE LINE # 191
00F4 D200        R     SETB    flag_div
                                           ; SOURCE LINE # 192
00F6         ?C0078:
00F6 0500        R     INC     cnt_opration
                                           ; SOURCE LINE # 193
00F8 E4                CLR     A
                                           ; SOURCE LINE # 194
00F9 801F              SJMP    ?C0079
00FB         ?C0038:
                                           ; SOURCE LINE # 195
00FB E500        R     MOV     A,keycode
00FD 640D              XRL     A,#0DH
00FF 7022              JNZ     ?C0042
                                           ; SOURCE LINE # 196
                                           ; SOURCE LINE # 197
0101 120000      R     LCALL   DoCalculate
                                           ; SOURCE LINE # 198
0104 AF00        R     MOV     R7,result+03H
0106 AE00        R     MOV     R6,result+02H
0108 AD00        R     MOV     R5,result+01H
010A AC00        R     MOV     R4,result
010C 120000      R     LCALL   _ShowNumber
                                           ; SOURCE LINE # 199
010F E4                CLR     A
0110 F500        R     MOV     result+03H,A
0112 F500        R     MOV     result+02H,A
0114 F500        R     MOV     result+01H,A
0116 F500        R     MOV     result,A
                                           ; SOURCE LINE # 200
0118 F500        R     MOV     cnt_opration,A
                                           ; SOURCE LINE # 201
011A         ?C0079:
011A F500        R     MOV     op+03H,A
011C F500        R     MOV     op+02H,A
011E F500        R     MOV     op+01H,A
0120 F500        R     MOV     op,A
                                           ; SOURCE LINE # 202
0122 22                RET     
0123         ?C0042:
                                           ; SOURCE LINE # 203
0123 E500        R     MOV     A,keycode
0125 641B              XRL     A,#01BH
0127 7013              JNZ     ?C0045
                                           ; SOURCE LINE # 204
                                           ; SOURCE LINE # 205
0129 F500        R     MOV     op+03H,A
012B F500        R     MOV     op+02H,A
012D F500        R     MOV     op+01H,A
012F F500        R     MOV     op,A
                                           ; SOURCE LINE # 206
C51 COMPILER V9.60.0.0   MAIN                                                              01/30/2022 17:43:39 PAGE 15  

0131 AF00        R     MOV     R7,op+03H
0133 AE00        R     MOV     R6,op+02H
0135 AD00        R     MOV     R5,op+01H
0137 AC00        R     MOV     R4,op
0139         ?C0075:
0139 120000      R     LCALL   _ShowNumber
                                           ; SOURCE LINE # 207
                                           ; SOURCE LINE # 208
013C         ?C0045:
013C 22                RET     
             ; FUNCTION _KeyAction (END)

             ; FUNCTION KeyDrive (BEGIN)
                                           ; SOURCE LINE # 211
                                           ; SOURCE LINE # 212
                                           ; SOURCE LINE # 219
0000 E4                CLR     A
0001 F500        R     MOV     i,A
0003         ?C0046:
0003 C3                CLR     C
0004 E500        R     MOV     A,i
0006 9404              SUBB    A,#04H
0008 7480              MOV     A,#080H
000A 9480              SUBB    A,#080H
000C 506F              JNC     ?C0054
                                           ; SOURCE LINE # 220
                                           ; SOURCE LINE # 221
000E E4                CLR     A
000F F500        R     MOV     j,A
0011         ?C0049:
0011 C3                CLR     C
0012 E500        R     MOV     A,j
0014 9404              SUBB    A,#04H
0016 7480              MOV     A,#080H
0018 9480              SUBB    A,#080H
001A 505D              JNC     ?C0048
                                           ; SOURCE LINE # 222
                                           ; SOURCE LINE # 223
001C E500        R     MOV     A,i
001E 25E0              ADD     A,ACC
0020 25E0              ADD     A,ACC
0022 2400        R     ADD     A,#LOW KeyStaCur
0024 2500        R     ADD     A,j
0026 F8                MOV     R0,A
0027 E6                MOV     A,@R0
0028 FF                MOV     R7,A
0029 E500        R     MOV     A,i
002B 25E0              ADD     A,ACC
002D 25E0              ADD     A,ACC
002F 2400        R     ADD     A,#LOW backup
0031 2500        R     ADD     A,j
0033 F8                MOV     R0,A
0034 E6                MOV     A,@R0
0035 6F                XRL     A,R7
0036 603D              JZ      ?C0051
                                           ; SOURCE LINE # 224
                                           ; SOURCE LINE # 225
0038 EF                MOV     A,R7
0039 7020              JNZ     ?C0053
                                           ; SOURCE LINE # 226
                                           ; SOURCE LINE # 227
003B E500        R     MOV     A,i
C51 COMPILER V9.60.0.0   MAIN                                                              01/30/2022 17:43:39 PAGE 16  

003D 25E0              ADD     A,ACC
003F 25E0              ADD     A,ACC
0041 2400        R     ADD     A,#LOW KeyCodeMap
0043 F582              MOV     DPL,A
0045 E4                CLR     A
0046 3400        R     ADDC    A,#HIGH KeyCodeMap
0048 F583              MOV     DPH,A
004A E582              MOV     A,DPL
004C 2500        R     ADD     A,j
004E F582              MOV     DPL,A
0050 E4                CLR     A
0051 3583              ADDC    A,DPH
0053 F583              MOV     DPH,A
0055 E4                CLR     A
0056 93                MOVC    A,@A+DPTR
0057 FF                MOV     R7,A
0058 120000      R     LCALL   _KeyAction
                                           ; SOURCE LINE # 228
005B         ?C0053:
                                           ; SOURCE LINE # 229
005B E500        R     MOV     A,i
005D 25E0              ADD     A,ACC
005F 25E0              ADD     A,ACC
0061 2400        R     ADD     A,#LOW KeyStaCur
0063 2500        R     ADD     A,j
0065 F8                MOV     R0,A
0066 E6                MOV     A,@R0
0067 FF                MOV     R7,A
0068 E500        R     MOV     A,i
006A 25E0              ADD     A,ACC
006C 25E0              ADD     A,ACC
006E 2400        R     ADD     A,#LOW backup
0070 2500        R     ADD     A,j
0072 F8                MOV     R0,A
0073 A607              MOV     @R0,AR7
                                           ; SOURCE LINE # 230
                                           ; SOURCE LINE # 231
0075         ?C0051:
0075 0500        R     INC     j
0077 8098              SJMP    ?C0049
                                           ; SOURCE LINE # 232
0079         ?C0048:
0079 0500        R     INC     i
007B 8086              SJMP    ?C0046
                                           ; SOURCE LINE # 233
007D         ?C0054:
007D 22                RET     
             ; FUNCTION KeyDrive (END)

             ; FUNCTION KeyScan (BEGIN)
                                           ; SOURCE LINE # 236
                                           ; SOURCE LINE # 237
                                           ; SOURCE LINE # 246
0000 E500        R     MOV     A,keyrow
0002 25E0              ADD     A,ACC
0004 25E0              ADD     A,ACC
0006 2400        R     ADD     A,#LOW keybuf
0008 F8                MOV     R0,A
0009 E6                MOV     A,@R0
000A 25E0              ADD     A,ACC
000C FF                MOV     R7,A
000D A2B4              MOV     C,KEY_COL_1
C51 COMPILER V9.60.0.0   MAIN                                                              01/30/2022 17:43:39 PAGE 17  

000F E4                CLR     A
0010 33                RLC     A
0011 4F                ORL     A,R7
0012 FF                MOV     R7,A
0013 E500        R     MOV     A,keyrow
0015 25E0              ADD     A,ACC
0017 25E0              ADD     A,ACC
0019 2400        R     ADD     A,#LOW keybuf
001B F8                MOV     R0,A
001C A607              MOV     @R0,AR7
                                           ; SOURCE LINE # 247
001E E500        R     MOV     A,keyrow
0020 25E0              ADD     A,ACC
0022 25E0              ADD     A,ACC
0024 2400        R     ADD     A,#LOW keybuf+01H
0026 F8                MOV     R0,A
0027 E6                MOV     A,@R0
0028 25E0              ADD     A,ACC
002A FF                MOV     R7,A
002B A2B5              MOV     C,KEY_COL_2
002D E4                CLR     A
002E 33                RLC     A
002F 4F                ORL     A,R7
0030 FF                MOV     R7,A
0031 E500        R     MOV     A,keyrow
0033 25E0              ADD     A,ACC
0035 25E0              ADD     A,ACC
0037 2400        R     ADD     A,#LOW keybuf+01H
0039 F8                MOV     R0,A
003A A607              MOV     @R0,AR7
                                           ; SOURCE LINE # 248
003C E500        R     MOV     A,keyrow
003E 25E0              ADD     A,ACC
0040 25E0              ADD     A,ACC
0042 2400        R     ADD     A,#LOW keybuf+02H
0044 F8                MOV     R0,A
0045 E6                MOV     A,@R0
0046 25E0              ADD     A,ACC
0048 FF                MOV     R7,A
0049 A2B6              MOV     C,KEY_COL_3
004B E4                CLR     A
004C 33                RLC     A
004D 4F                ORL     A,R7
004E FF                MOV     R7,A
004F E500        R     MOV     A,keyrow
0051 25E0              ADD     A,ACC
0053 25E0              ADD     A,ACC
0055 2400        R     ADD     A,#LOW keybuf+02H
0057 F8                MOV     R0,A
0058 A607              MOV     @R0,AR7
                                           ; SOURCE LINE # 249
005A E500        R     MOV     A,keyrow
005C 25E0              ADD     A,ACC
005E 25E0              ADD     A,ACC
0060 2400        R     ADD     A,#LOW keybuf+03H
0062 F8                MOV     R0,A
0063 E6                MOV     A,@R0
0064 25E0              ADD     A,ACC
0066 FF                MOV     R7,A
0067 A2B7              MOV     C,KEY_COL_4
0069 E4                CLR     A
006A 33                RLC     A
C51 COMPILER V9.60.0.0   MAIN                                                              01/30/2022 17:43:39 PAGE 18  

006B 4F                ORL     A,R7
006C FF                MOV     R7,A
006D E500        R     MOV     A,keyrow
006F 25E0              ADD     A,ACC
0071 25E0              ADD     A,ACC
0073 2400        R     ADD     A,#LOW keybuf+03H
0075 F8                MOV     R0,A
0076 A607              MOV     @R0,AR7
                                           ; SOURCE LINE # 256
;---- Variable 'keycol' assigned to Register 'R7' ----
0078 E4                CLR     A
0079 FF                MOV     R7,A
007A         ?C0055:
007A EF                MOV     A,R7
007B C3                CLR     C
007C 9404              SUBB    A,#04H
007E 7480              MOV     A,#080H
0080 9480              SUBB    A,#080H
0082 5035              JNC     ?C0056
                                           ; SOURCE LINE # 257
                                           ; SOURCE LINE # 258
0084 E500        R     MOV     A,keyrow
0086 25E0              ADD     A,ACC
0088 25E0              ADD     A,ACC
008A 2400        R     ADD     A,#LOW keybuf
008C 2F                ADD     A,R7
008D F8                MOV     R0,A
008E E6                MOV     A,@R0
008F 540F              ANL     A,#0FH
0091 FD                MOV     R5,A
0092 7C00              MOV     R4,#00H
0094 700E              JNZ     ?C0058
                                           ; SOURCE LINE # 259
0096 E500        R     MOV     A,keyrow
0098 25E0              ADD     A,ACC
009A 25E0              ADD     A,ACC
009C 2400        R     ADD     A,#LOW KeyStaCur
009E 2F                ADD     A,R7
009F F8                MOV     R0,A
00A0 E4                CLR     A
00A1 F6                MOV     @R0,A
00A2 8012              SJMP    ?C0057
00A4         ?C0058:
                                           ; SOURCE LINE # 260
00A4 ED                MOV     A,R5
00A5 640F              XRL     A,#0FH
00A7 4C                ORL     A,R4
00A8 700C              JNZ     ?C0057
                                           ; SOURCE LINE # 261
00AA E500        R     MOV     A,keyrow
00AC 25E0              ADD     A,ACC
00AE 25E0              ADD     A,ACC
00B0 2400        R     ADD     A,#LOW KeyStaCur
00B2 2F                ADD     A,R7
00B3 F8                MOV     R0,A
00B4 7601              MOV     @R0,#01H
                                           ; SOURCE LINE # 262
00B6         ?C0057:
00B6 0F                INC     R7
00B7 80C1              SJMP    ?C0055
00B9         ?C0056:
                                           ; SOURCE LINE # 264
C51 COMPILER V9.60.0.0   MAIN                                                              01/30/2022 17:43:39 PAGE 19  

00B9 0500        R     INC     keyrow
                                           ; SOURCE LINE # 265
00BB 530003      R     ANL     keyrow,#03H
                                           ; SOURCE LINE # 266
00BE E500        R     MOV     A,keyrow
00C0 14                DEC     A
00C1 600F              JZ      ?C0063
00C3 14                DEC     A
00C4 6011              JZ      ?C0064
00C6 14                DEC     A
00C7 6013              JZ      ?C0065
00C9 2403              ADD     A,#03H
00CB 7013              JNZ     ?C0067
                                           ; SOURCE LINE # 267
                                           ; SOURCE LINE # 268
00CD         ?C0062:
00CD D2B3              SETB    KEY_ROW_4
00CF C2B0              CLR     KEY_ROW_1
00D1 22                RET     
                                           ; SOURCE LINE # 269
00D2         ?C0063:
00D2 D2B0              SETB    KEY_ROW_1
00D4 C2B1              CLR     KEY_ROW_2
00D6 22                RET     
                                           ; SOURCE LINE # 270
00D7         ?C0064:
00D7 D2B1              SETB    KEY_ROW_2
00D9 C2B2              CLR     KEY_ROW_3
00DB 22                RET     
                                           ; SOURCE LINE # 271
00DC         ?C0065:
00DC D2B2              SETB    KEY_ROW_3
00DE C2B3              CLR     KEY_ROW_4
                                           ; SOURCE LINE # 272
                                           ; SOURCE LINE # 273
                                           ; SOURCE LINE # 274
00E0         ?C0067:
00E0 22                RET     
             ; FUNCTION KeyScan (END)

             ; FUNCTION _LedScan (BEGIN)
                                           ; SOURCE LINE # 277
;---- Variable 'x' assigned to Register 'R7' ----
                                           ; SOURCE LINE # 278
                                           ; SOURCE LINE # 279
0000 E4                CLR     A
0001 F580              MOV     P0,A
                                           ; SOURCE LINE # 280
0003 D2A6              SETB    SEG
                                           ; SOURCE LINE # 281
0005 C2A6              CLR     SEG
                                           ; SOURCE LINE # 283
0007 7580FF            MOV     P0,#0FFH
                                           ; SOURCE LINE # 284
000A D2A7              SETB    DIG
                                           ; SOURCE LINE # 285
000C A807              MOV     R0,AR7
000E 04                INC     A
000F 08                INC     R0
0010 8002              SJMP    ?C0073
0012         ?C0072:
0012 C3                CLR     C
C51 COMPILER V9.60.0.0   MAIN                                                              01/30/2022 17:43:39 PAGE 20  

0013 33                RLC     A
0014         ?C0073:
0014 D8FC              DJNZ    R0,?C0072
0016 F4                CPL     A
0017 5280              ANL     P0,A
                                           ; SOURCE LINE # 286
0019 C2A7              CLR     DIG
                                           ; SOURCE LINE # 288
001B E4                CLR     A
001C F580              MOV     P0,A
                                           ; SOURCE LINE # 289
001E D2A6              SETB    SEG
                                           ; SOURCE LINE # 290
0020 7400        R     MOV     A,#LOW LedBuf
0022 2F                ADD     A,R7
0023 F8                MOV     R0,A
0024 E6                MOV     A,@R0
0025 F580              MOV     P0,A
                                           ; SOURCE LINE # 291
0027 C2A6              CLR     SEG
                                           ; SOURCE LINE # 292
0029 22                RET     
             ; FUNCTION _LedScan (END)

             ; FUNCTION InterruptTimer0 (BEGIN)
0000 C0E0              PUSH    ACC
0002 C0D0              PUSH    PSW
0004 75D000            MOV     PSW,#00H
0007 C000              PUSH    AR0
0009 C004              PUSH    AR4
000B C005              PUSH    AR5
000D C007              PUSH    AR7
                                           ; SOURCE LINE # 295
                                           ; SOURCE LINE # 299
000F 758CFC            MOV     TH0,#0FCH
                                           ; SOURCE LINE # 300
0012 758A67            MOV     TL0,#067H
                                           ; SOURCE LINE # 302
0015 AF00        R     MOV     R7,idx+01H
0017 120000      R     LCALL   _LedScan
                                           ; SOURCE LINE # 303
001A C3                CLR     C
001B E500        R     MOV     A,idx+01H
001D 9407              SUBB    A,#07H
001F E500        R     MOV     A,idx
0021 9400              SUBB    A,#00H
0023 500A              JNC     ?C0069
                                           ; SOURCE LINE # 304
0025 0500        R     INC     idx+01H
0027 E500        R     MOV     A,idx+01H
0029 700A              JNZ     ?C0070
002B 0500        R     INC     idx
002D         ?C0074:
002D 8006              SJMP    ?C0070
002F         ?C0069:
                                           ; SOURCE LINE # 306
002F 750000      R     MOV     idx,#00H
0032 750000      R     MOV     idx+01H,#00H
0035         ?C0070:
                                           ; SOURCE LINE # 307
0035 120000      R     LCALL   KeyScan
                                           ; SOURCE LINE # 308
C51 COMPILER V9.60.0.0   MAIN                                                              01/30/2022 17:43:39 PAGE 21  

0038 D007              POP     AR7
003A D005              POP     AR5
003C D004              POP     AR4
003E D000              POP     AR0
0040 D0D0              POP     PSW
0042 D0E0              POP     ACC
0044 32                RETI    
             ; FUNCTION InterruptTimer0 (END)

C51 COMPILER V9.60.0.0   MAIN                                                              01/30/2022 17:43:39 PAGE 22  

NAME                                    CLASS   MSPACE  TYPE    OFFSET  SIZE
====                                    =====   ======  ====    ======  ====


P0 . . . . . . . . . . . . . . . . . .  SFR      DATA   U_CHAR   0080H  1
KeyStaCur. . . . . . . . . . . . . . .  PUBLIC   DATA   ARRAY    0023H  16
P1 . . . . . . . . . . . . . . . . . .  SFR      DATA   U_CHAR   0090H  1
P2 . . . . . . . . . . . . . . . . . .  SFR      DATA   U_CHAR   00A0H  1
P3 . . . . . . . . . . . . . . . . . .  SFR      DATA   U_CHAR   00B0H  1
XICON. . . . . . . . . . . . . . . . .  SFR      DATA   U_CHAR   00C0H  1
T0 . . . . . . . . . . . . . . . . . .  ABSBIT   -----  BIT      00B4H  1
AC . . . . . . . . . . . . . . . . . .  ABSBIT   -----  BIT      00D6H  1
P4 . . . . . . . . . . . . . . . . . .  SFR      DATA   U_CHAR   00E8H  1
T1 . . . . . . . . . . . . . . . . . .  ABSBIT   -----  BIT      00B5H  1
ISP_TRIG . . . . . . . . . . . . . . .  SFR      DATA   U_CHAR   00E6H  1
T2 . . . . . . . . . . . . . . . . . .  ABSBIT   -----  BIT      0090H  1
EA . . . . . . . . . . . . . . . . . .  ABSBIT   -----  BIT      00AFH  1
EC . . . . . . . . . . . . . . . . . .  ABSBIT   -----  BIT      00AEH  1
InterruptTimer0. . . . . . . . . . . .  PUBLIC   CODE   PROC     0000H  -----
  idx. . . . . . . . . . . . . . . . .  STATIC   DATA   U_INT    0021H  2
FE . . . . . . . . . . . . . . . . . .  ABSBIT   -----  BIT      009FH  1
_KeyAction . . . . . . . . . . . . . .  PUBLIC   CODE   PROC     0000H  -----
  keycode. . . . . . . . . . . . . . .  AUTO     DATA   U_CHAR   0000H  1
IE . . . . . . . . . . . . . . . . . .  SFR      DATA   U_CHAR   00A8H  1
_ShowNumber. . . . . . . . . . . . . .  PUBLIC   CODE   PROC     0000H  -----
  num. . . . . . . . . . . . . . . . .  AUTO     DATA   U_LONG   0000H  4
  i. . . . . . . . . . . . . . . . . .  AUTO     DATA   CHAR     0004H  1
  buf. . . . . . . . . . . . . . . . .  AUTO     DATA   ARRAY    0005H  8
EXF2 . . . . . . . . . . . . . . . . .  ABSBIT   -----  BIT      00CEH  1
RD . . . . . . . . . . . . . . . . . .  ABSBIT   -----  BIT      00B7H  1
LedChar. . . . . . . . . . . . . . . .  PUBLIC   CODE   ARRAY    0000H  16
ES . . . . . . . . . . . . . . . . . .  ABSBIT   -----  BIT      00ACH  1
cnt_opration . . . . . . . . . . . . .  PUBLIC   DATA   U_CHAR   0033H  1
IP . . . . . . . . . . . . . . . . . .  SFR      DATA   U_CHAR   00B8H  1
RI . . . . . . . . . . . . . . . . . .  ABSBIT   -----  BIT      0098H  1
INT0 . . . . . . . . . . . . . . . . .  ABSBIT   -----  BIT      00B2H  1
CY . . . . . . . . . . . . . . . . . .  ABSBIT   -----  BIT      00D7H  1
TI . . . . . . . . . . . . . . . . . .  ABSBIT   -----  BIT      0099H  1
INT1 . . . . . . . . . . . . . . . . .  ABSBIT   -----  BIT      00B3H  1
_LedScan . . . . . . . . . . . . . . .  PUBLIC   CODE   PROC     0000H  -----
  x. . . . . . . . . . . . . . . . . .  * REG *  DATA   U_CHAR   0007H  1
RCAP2H . . . . . . . . . . . . . . . .  SFR      DATA   U_CHAR   00CBH  1
ISP_CMD. . . . . . . . . . . . . . . .  SFR      DATA   U_CHAR   00E5H  1
result . . . . . . . . . . . . . . . .  PUBLIC   DATA   U_LONG   0034H  4
PS . . . . . . . . . . . . . . . . . .  ABSBIT   -----  BIT      00BCH  1
SP . . . . . . . . . . . . . . . . . .  SFR      DATA   U_CHAR   0081H  1
T2EX . . . . . . . . . . . . . . . . .  ABSBIT   -----  BIT      0091H  1
OV . . . . . . . . . . . . . . . . . .  ABSBIT   -----  BIT      00D2H  1
RCAP2L . . . . . . . . . . . . . . . .  SFR      DATA   U_CHAR   00CAH  1
main . . . . . . . . . . . . . . . . .  PUBLIC   CODE   PROC     0000H  -----
flag_add . . . . . . . . . . . . . . .  PUBLIC   DATA   BIT      0000H  1
KeyDrive . . . . . . . . . . . . . . .  PUBLIC   CODE   PROC     0000H  -----
  i. . . . . . . . . . . . . . . . . .  AUTO     DATA   U_CHAR   0000H  1
  j. . . . . . . . . . . . . . . . . .  AUTO     DATA   U_CHAR   0001H  1
  backup . . . . . . . . . . . . . . .  STATIC   DATA   ARRAY    0000H  16
C_T2 . . . . . . . . . . . . . . . . .  ABSBIT   -----  BIT      00C9H  1
WR . . . . . . . . . . . . . . . . . .  ABSBIT   -----  BIT      00B6H  1
RCLK . . . . . . . . . . . . . . . . .  ABSBIT   -----  BIT      00CDH  1
TCLK . . . . . . . . . . . . . . . . .  ABSBIT   -----  BIT      00CCH  1
P00. . . . . . . . . . . . . . . . . .  ABSBIT   -----  BIT      0080H  1
SBUF . . . . . . . . . . . . . . . . .  SFR      DATA   U_CHAR   0099H  1
C51 COMPILER V9.60.0.0   MAIN                                                              01/30/2022 17:43:39 PAGE 23  

NAME                                    CLASS   MSPACE  TYPE    OFFSET  SIZE
====                                    =====   ======  ====    ======  ====


PCON . . . . . . . . . . . . . . . . .  SFR      DATA   U_CHAR   0087H  1
P10. . . . . . . . . . . . . . . . . .  ABSBIT   -----  BIT      0090H  1
P01. . . . . . . . . . . . . . . . . .  ABSBIT   -----  BIT      0081H  1
KeyScan. . . . . . . . . . . . . . . .  PUBLIC   CODE   PROC     0000H  -----
  keycol . . . . . . . . . . . . . . .  * REG *  DATA   U_CHAR   0007H  1
  keyrow . . . . . . . . . . . . . . .  STATIC   DATA   U_CHAR   0010H  1
  keybuf . . . . . . . . . . . . . . .  STATIC   DATA   ARRAY    0011H  16
P20. . . . . . . . . . . . . . . . . .  ABSBIT   -----  BIT      00A0H  1
P11. . . . . . . . . . . . . . . . . .  ABSBIT   -----  BIT      0091H  1
P02. . . . . . . . . . . . . . . . . .  ABSBIT   -----  BIT      0082H  1
ISP_ADDRH. . . . . . . . . . . . . . .  SFR      DATA   U_CHAR   00E3H  1
P30. . . . . . . . . . . . . . . . . .  ABSBIT   -----  BIT      00B0H  1
P21. . . . . . . . . . . . . . . . . .  ABSBIT   -----  BIT      00A1H  1
P12. . . . . . . . . . . . . . . . . .  ABSBIT   -----  BIT      0092H  1
P03. . . . . . . . . . . . . . . . . .  ABSBIT   -----  BIT      0083H  1
SCON . . . . . . . . . . . . . . . . .  SFR      DATA   U_CHAR   0098H  1
P31. . . . . . . . . . . . . . . . . .  ABSBIT   -----  BIT      00B1H  1
P22. . . . . . . . . . . . . . . . . .  ABSBIT   -----  BIT      00A2H  1
P13. . . . . . . . . . . . . . . . . .  ABSBIT   -----  BIT      0093H  1
P04. . . . . . . . . . . . . . . . . .  ABSBIT   -----  BIT      0084H  1
P40. . . . . . . . . . . . . . . . . .  ABSBIT   -----  BIT      00E8H  1
LedBuf . . . . . . . . . . . . . . . .  PUBLIC   DATA   ARRAY    0038H  8
TMOD . . . . . . . . . . . . . . . . .  SFR      DATA   U_CHAR   0089H  1
TCON . . . . . . . . . . . . . . . . .  SFR      DATA   U_CHAR   0088H  1
P32. . . . . . . . . . . . . . . . . .  ABSBIT   -----  BIT      00B2H  1
P23. . . . . . . . . . . . . . . . . .  ABSBIT   -----  BIT      00A3H  1
P14. . . . . . . . . . . . . . . . . .  ABSBIT   -----  BIT      0094H  1
P05. . . . . . . . . . . . . . . . . .  ABSBIT   -----  BIT      0085H  1
P41. . . . . . . . . . . . . . . . . .  ABSBIT   -----  BIT      00E9H  1
P33. . . . . . . . . . . . . . . . . .  ABSBIT   -----  BIT      00B3H  1
P24. . . . . . . . . . . . . . . . . .  ABSBIT   -----  BIT      00A4H  1
P15. . . . . . . . . . . . . . . . . .  ABSBIT   -----  BIT      0095H  1
P06. . . . . . . . . . . . . . . . . .  ABSBIT   -----  BIT      0086H  1
ISP_ADDRL. . . . . . . . . . . . . . .  SFR      DATA   U_CHAR   00E4H  1
P42. . . . . . . . . . . . . . . . . .  ABSBIT   -----  BIT      00EAH  1
P34. . . . . . . . . . . . . . . . . .  ABSBIT   -----  BIT      00B4H  1
P25. . . . . . . . . . . . . . . . . .  ABSBIT   -----  BIT      00A5H  1
P16. . . . . . . . . . . . . . . . . .  ABSBIT   -----  BIT      0096H  1
P07. . . . . . . . . . . . . . . . . .  ABSBIT   -----  BIT      0087H  1
P43. . . . . . . . . . . . . . . . . .  ABSBIT   -----  BIT      00EBH  1
P35. . . . . . . . . . . . . . . . . .  ABSBIT   -----  BIT      00B5H  1
P26. . . . . . . . . . . . . . . . . .  ABSBIT   -----  BIT      00A6H  1
P17. . . . . . . . . . . . . . . . . .  ABSBIT   -----  BIT      0097H  1
P44. . . . . . . . . . . . . . . . . .  ABSBIT   -----  BIT      00ECH  1
P36. . . . . . . . . . . . . . . . . .  ABSBIT   -----  BIT      00B6H  1
P27. . . . . . . . . . . . . . . . . .  ABSBIT   -----  BIT      00A7H  1
P45. . . . . . . . . . . . . . . . . .  ABSBIT   -----  BIT      00EDH  1
KEY_COL_1. . . . . . . . . . . . . . .  ABSBIT   -----  BIT      00B4H  1
P37. . . . . . . . . . . . . . . . . .  ABSBIT   -----  BIT      00B7H  1
P46. . . . . . . . . . . . . . . . . .  ABSBIT   -----  BIT      00EEH  1
KEY_COL_2. . . . . . . . . . . . . . .  ABSBIT   -----  BIT      00B5H  1
KEY_COL_3. . . . . . . . . . . . . . .  ABSBIT   -----  BIT      00B6H  1
KEY_COL_4. . . . . . . . . . . . . . .  ABSBIT   -----  BIT      00B7H  1
IE0. . . . . . . . . . . . . . . . . .  ABSBIT   -----  BIT      0089H  1
IE1. . . . . . . . . . . . . . . . . .  ABSBIT   -----  BIT      008BH  1
flag_div . . . . . . . . . . . . . . .  PUBLIC   DATA   BIT      0001H  1
AUXR . . . . . . . . . . . . . . . . .  SFR      DATA   U_CHAR   008EH  1
C51 COMPILER V9.60.0.0   MAIN                                                              01/30/2022 17:43:39 PAGE 24  

NAME                                    CLASS   MSPACE  TYPE    OFFSET  SIZE
====                                    =====   ======  ====    ======  ====


B. . . . . . . . . . . . . . . . . . .  SFR      DATA   U_CHAR   00F0H  1
CP_RL2 . . . . . . . . . . . . . . . .  ABSBIT   -----  BIT      00C8H  1
ACC. . . . . . . . . . . . . . . . . .  SFR      DATA   U_CHAR   00E0H  1
DoCalculate. . . . . . . . . . . . . .  PUBLIC   CODE   PROC     0000H  -----
flag_sub . . . . . . . . . . . . . . .  PUBLIC   DATA   BIT      0002H  1
KeyCodeMap . . . . . . . . . . . . . .  PUBLIC   CODE   ARRAY    0010H  16
ET0. . . . . . . . . . . . . . . . . .  ABSBIT   -----  BIT      00A9H  1
ET1. . . . . . . . . . . . . . . . . .  ABSBIT   -----  BIT      00ABH  1
TF0. . . . . . . . . . . . . . . . . .  ABSBIT   -----  BIT      008DH  1
ET2. . . . . . . . . . . . . . . . . .  ABSBIT   -----  BIT      00ADH  1
TF1. . . . . . . . . . . . . . . . . .  ABSBIT   -----  BIT      008FH  1
flag_mul . . . . . . . . . . . . . . .  PUBLIC   DATA   BIT      0003H  1
TF2. . . . . . . . . . . . . . . . . .  ABSBIT   -----  BIT      00CFH  1
RB8. . . . . . . . . . . . . . . . . .  ABSBIT   -----  BIT      009AH  1
TH0. . . . . . . . . . . . . . . . . .  SFR      DATA   U_CHAR   008CH  1
EX0. . . . . . . . . . . . . . . . . .  ABSBIT   -----  BIT      00A8H  1
IT0. . . . . . . . . . . . . . . . . .  ABSBIT   -----  BIT      0088H  1
TH1. . . . . . . . . . . . . . . . . .  SFR      DATA   U_CHAR   008DH  1
TB8. . . . . . . . . . . . . . . . . .  ABSBIT   -----  BIT      009BH  1
EX1. . . . . . . . . . . . . . . . . .  ABSBIT   -----  BIT      00AAH  1
IT1. . . . . . . . . . . . . . . . . .  ABSBIT   -----  BIT      008AH  1
TH2. . . . . . . . . . . . . . . . . .  SFR      DATA   U_CHAR   00CDH  1
P. . . . . . . . . . . . . . . . . . .  ABSBIT   -----  BIT      00D0H  1
SM0. . . . . . . . . . . . . . . . . .  ABSBIT   -----  BIT      009FH  1
TL0. . . . . . . . . . . . . . . . . .  SFR      DATA   U_CHAR   008AH  1
SM1. . . . . . . . . . . . . . . . . .  ABSBIT   -----  BIT      009EH  1
TL1. . . . . . . . . . . . . . . . . .  SFR      DATA   U_CHAR   008BH  1
SM2. . . . . . . . . . . . . . . . . .  ABSBIT   -----  BIT      009DH  1
TL2. . . . . . . . . . . . . . . . . .  SFR      DATA   U_CHAR   00CCH  1
KEY_ROW_1. . . . . . . . . . . . . . .  ABSBIT   -----  BIT      00B0H  1
DIG. . . . . . . . . . . . . . . . . .  ABSBIT   -----  BIT      00A7H  1
PT0. . . . . . . . . . . . . . . . . .  ABSBIT   -----  BIT      00B9H  1
KEY_ROW_2. . . . . . . . . . . . . . .  ABSBIT   -----  BIT      00B1H  1
PT1. . . . . . . . . . . . . . . . . .  ABSBIT   -----  BIT      00BBH  1
RS0. . . . . . . . . . . . . . . . . .  ABSBIT   -----  BIT      00D3H  1
ISP_CONTR. . . . . . . . . . . . . . .  SFR      DATA   U_CHAR   00E7H  1
KEY_ROW_3. . . . . . . . . . . . . . .  ABSBIT   -----  BIT      00B2H  1
PT2. . . . . . . . . . . . . . . . . .  ABSBIT   -----  BIT      00BDH  1
TR0. . . . . . . . . . . . . . . . . .  ABSBIT   -----  BIT      008CH  1
RS1. . . . . . . . . . . . . . . . . .  ABSBIT   -----  BIT      00D4H  1
KEY_ROW_4. . . . . . . . . . . . . . .  ABSBIT   -----  BIT      00B3H  1
TR1. . . . . . . . . . . . . . . . . .  ABSBIT   -----  BIT      008EH  1
TR2. . . . . . . . . . . . . . . . . .  ABSBIT   -----  BIT      00CAH  1
PX0. . . . . . . . . . . . . . . . . .  ABSBIT   -----  BIT      00B8H  1
WDT_CONTR. . . . . . . . . . . . . . .  SFR      DATA   U_CHAR   00E1H  1
PX1. . . . . . . . . . . . . . . . . .  ABSBIT   -----  BIT      00BAH  1
DPH. . . . . . . . . . . . . . . . . .  SFR      DATA   U_CHAR   0083H  1
op . . . . . . . . . . . . . . . . . .  PUBLIC   DATA   U_LONG   0040H  4
SEG. . . . . . . . . . . . . . . . . .  ABSBIT   -----  BIT      00A6H  1
DPL. . . . . . . . . . . . . . . . . .  SFR      DATA   U_CHAR   0082H  1
IPH. . . . . . . . . . . . . . . . . .  SFR      DATA   U_CHAR   00B7H  1
EXEN2. . . . . . . . . . . . . . . . .  ABSBIT   -----  BIT      00CBH  1
REN. . . . . . . . . . . . . . . . . .  ABSBIT   -----  BIT      009CH  1
T2MOD. . . . . . . . . . . . . . . . .  SFR      DATA   U_CHAR   00C9H  1
T2CON. . . . . . . . . . . . . . . . .  SFR      DATA   U_CHAR   00C8H  1
ISP_DATA . . . . . . . . . . . . . . .  SFR      DATA   U_CHAR   00E2H  1
SADEN. . . . . . . . . . . . . . . . .  SFR      DATA   U_CHAR   00B9H  1
C51 COMPILER V9.60.0.0   MAIN                                                              01/30/2022 17:43:39 PAGE 25  

NAME                                    CLASS   MSPACE  TYPE    OFFSET  SIZE
====                                    =====   ======  ====    ======  ====


RXD. . . . . . . . . . . . . . . . . .  ABSBIT   -----  BIT      00B0H  1
SADDR. . . . . . . . . . . . . . . . .  SFR      DATA   U_CHAR   00A9H  1
TXD. . . . . . . . . . . . . . . . . .  ABSBIT   -----  BIT      00B1H  1
AUXR1. . . . . . . . . . . . . . . . .  SFR      DATA   U_CHAR   00A2H  1
F0 . . . . . . . . . . . . . . . . . .  ABSBIT   -----  BIT      00D5H  1
PSW. . . . . . . . . . . . . . . . . .  SFR      DATA   U_CHAR   00D0H  1


MODULE INFORMATION:   STATIC OVERLAYABLE
   CODE SIZE        =   1093    ----
   CONSTANT SIZE    =     32    ----
   XDATA SIZE       =   ----    ----
   PDATA SIZE       =   ----    ----
   DATA SIZE        =     68      16
   IDATA SIZE       =   ----    ----
   BIT SIZE         =      4    ----
   EDATA SIZE       =   ----    ----
   HDATA SIZE       =   ----    ----
   XDATA CONST SIZE =   ----    ----
   FAR CONST SIZE   =   ----    ----
END OF MODULE INFORMATION.


C51 COMPILATION COMPLETE.  0 WARNING(S),  0 ERROR(S)
